ARM GAS  /var/folders/9y/n02fl3g16gnf7ppy14xghdy80000gn/T//ccEteVD4.s 			page 1


   1              		.cpu cortex-m7
   2              		.eabi_attribute 27, 1
   3              		.eabi_attribute 28, 1
   4              		.eabi_attribute 20, 1
   5              		.eabi_attribute 21, 1
   6              		.eabi_attribute 23, 3
   7              		.eabi_attribute 24, 1
   8              		.eabi_attribute 25, 1
   9              		.eabi_attribute 26, 1
  10              		.eabi_attribute 30, 1
  11              		.eabi_attribute 34, 1
  12              		.eabi_attribute 18, 4
  13              		.file	"compute_axis_commands.c"
  14              		.text
  15              	.Ltext0:
  16              		.cfi_sections	.debug_frame
  17              		.global	__aeabi_f2d
  18              		.global	__aeabi_dmul
  19              		.global	__aeabi_dadd
  20              		.global	__aeabi_ddiv
  21              		.global	__aeabi_d2f
  22              		.section	.text.computeAxisCommands,"ax",%progbits
  23              		.align	1
  24              		.global	computeAxisCommands
  25              		.arch armv7e-m
  26              		.syntax unified
  27              		.thumb
  28              		.thumb_func
  29              		.fpu fpv5-sp-d16
  31              	computeAxisCommands:
  32              	.LFB187:
  33              		.file 1 "Src/motion/compute_axis_commands.c"
   1:Src/motion/compute_axis_commands.c **** /** @file 		compute_axis_commands.c
   2:Src/motion/compute_axis_commands.c ****  *  @brief
   3:Src/motion/compute_axis_commands.c ****  *  	This file creates the inputs to the PID controller and sends values to the mixer.
   4:Src/motion/compute_axis_commands.c ****  *
   5:Src/motion/compute_axis_commands.c ****  *  @author 	Jeremy Wolfe
   6:Src/motion/compute_axis_commands.c ****  *  @date 		07 MAR 2022
   7:Src/motion/compute_axis_commands.c ****  */
   8:Src/motion/compute_axis_commands.c **** 
   9:Src/motion/compute_axis_commands.c **** /* Includes */
  10:Src/motion/compute_axis_commands.c **** #include "board.h"
  11:Src/motion/compute_axis_commands.c **** 
  12:Src/motion/compute_axis_commands.c **** /* Global Variables */
  13:Src/motion/compute_axis_commands.c **** float attCmd[3];
  14:Src/motion/compute_axis_commands.c **** float attPID[3];
  15:Src/motion/compute_axis_commands.c **** float ratePID[3];
  16:Src/motion/compute_axis_commands.c **** float rateCmd[3];
  17:Src/motion/compute_axis_commands.c **** 
  18:Src/motion/compute_axis_commands.c **** /** @brief Computes the commands that get sent to the mixer.
  19:Src/motion/compute_axis_commands.c ****  *
  20:Src/motion/compute_axis_commands.c ****  *  @return Void.
  21:Src/motion/compute_axis_commands.c ****  */
  22:Src/motion/compute_axis_commands.c **** void computeAxisCommands(void)
  23:Src/motion/compute_axis_commands.c **** {
  34              		.loc 1 23 1 view -0
  35              		.cfi_startproc
ARM GAS  /var/folders/9y/n02fl3g16gnf7ppy14xghdy80000gn/T//ccEteVD4.s 			page 2


  36              		@ args = 0, pretend = 0, frame = 0
  37              		@ frame_needed = 0, uses_anonymous_args = 0
  38 0000 2DE9F047 		push	{r4, r5, r6, r7, r8, r9, r10, lr}
  39              		.cfi_def_cfa_offset 32
  40              		.cfi_offset 4, -32
  41              		.cfi_offset 5, -28
  42              		.cfi_offset 6, -24
  43              		.cfi_offset 7, -20
  44              		.cfi_offset 8, -16
  45              		.cfi_offset 9, -12
  46              		.cfi_offset 10, -8
  47              		.cfi_offset 14, -4
  48 0004 2DED028B 		vpush.64	{d8}
  49              		.cfi_def_cfa_offset 40
  50              		.cfi_offset 80, -40
  51              		.cfi_offset 81, -36
  24:Src/motion/compute_axis_commands.c ****     float error;
  52              		.loc 1 24 5 view .LVU1
  25:Src/motion/compute_axis_commands.c ****     uint16_t timerValue;
  53              		.loc 1 25 5 view .LVU2
  26:Src/motion/compute_axis_commands.c **** 
  27:Src/motion/compute_axis_commands.c ****     timerValue = getTimerValue();
  54              		.loc 1 27 5 view .LVU3
  55              		.loc 1 27 18 is_stmt 0 view .LVU4
  56 0008 FFF7FEFF 		bl	getTimerValue
  57              	.LVL0:
  58 000c 07EE900A 		vmov	s15, r0	@ int
  59              	.LVL1:
  28:Src/motion/compute_axis_commands.c ****     dt500Hz = (float)timerValue * 0.0000005f; // For integrations in 500 Hz loop
  60              		.loc 1 28 5 is_stmt 1 view .LVU5
  61              		.loc 1 28 15 is_stmt 0 view .LVU6
  62 0010 F8EE677A 		vcvt.f32.u32	s15, s15
  63              	.LVL2:
  64              		.loc 1 28 33 view .LVU7
  65 0014 9FED8C7A 		vldr.32	s14, .L11+8
  66 0018 67EE877A 		vmul.f32	s15, s15, s14
  67              		.loc 1 28 13 view .LVU8
  68 001c 8B4B     		ldr	r3, .L11+12
  69 001e C3ED007A 		vstr.32	s15, [r3]
  29:Src/motion/compute_axis_commands.c **** 
  30:Src/motion/compute_axis_commands.c ****     if (mode == FLIGHT)
  70              		.loc 1 30 5 is_stmt 1 view .LVU9
  71              		.loc 1 30 14 is_stmt 0 view .LVU10
  72 0022 8B4B     		ldr	r3, .L11+16
  73 0024 1B78     		ldrb	r3, [r3]	@ zero_extendqisi2
  74              		.loc 1 30 8 view .LVU11
  75 0026 012B     		cmp	r3, #1
  76 0028 06D0     		beq	.L8
  31:Src/motion/compute_axis_commands.c ****     {
  32:Src/motion/compute_axis_commands.c ****         if (flightMode == ANGLE)
  33:Src/motion/compute_axis_commands.c ****         {
  34:Src/motion/compute_axis_commands.c ****             attCmd[ROLL] = rxCommands[ROLL] * eepromConfig.attitudeScaling;
  35:Src/motion/compute_axis_commands.c ****             error = standardRadianFormat(attCmd[ROLL] - sensors.attitude500Hz[ROLL]);
  36:Src/motion/compute_axis_commands.c ****             attPID[ROLL] = updatePID(error, dt500Hz, pidReset, &eepromConfig.PID[ROLL_ATT_PID]);
  37:Src/motion/compute_axis_commands.c **** 
  38:Src/motion/compute_axis_commands.c ****             attCmd[PITCH] = rxCommands[PITCH] * eepromConfig.attitudeScaling;
  39:Src/motion/compute_axis_commands.c ****             error = standardRadianFormat(attCmd[PITCH] - sensors.attitude500Hz[PITCH]);
ARM GAS  /var/folders/9y/n02fl3g16gnf7ppy14xghdy80000gn/T//ccEteVD4.s 			page 3


  40:Src/motion/compute_axis_commands.c ****             attPID[PITCH] = updatePID(error, dt500Hz, pidReset, &eepromConfig.PID[PITCH_ATT_PID]);
  41:Src/motion/compute_axis_commands.c ****         }
  42:Src/motion/compute_axis_commands.c **** 
  43:Src/motion/compute_axis_commands.c ****         if (flightMode == RATE)
  44:Src/motion/compute_axis_commands.c ****         {
  45:Src/motion/compute_axis_commands.c ****             rateCmd[ROLL] = RATECURVE(rxCommands[ROLL]);
  46:Src/motion/compute_axis_commands.c ****             rateCmd[PITCH] = RATECURVE(rxCommands[PITCH]);
  47:Src/motion/compute_axis_commands.c ****         }
  48:Src/motion/compute_axis_commands.c ****         else
  49:Src/motion/compute_axis_commands.c ****         {
  50:Src/motion/compute_axis_commands.c ****             rateCmd[ROLL] = attPID[ROLL];
  51:Src/motion/compute_axis_commands.c ****             rateCmd[PITCH] = attPID[PITCH];
  52:Src/motion/compute_axis_commands.c ****         }
  53:Src/motion/compute_axis_commands.c ****         rateCmd[YAW] = rxCommands[YAW] * eepromConfig.yawRateScaling;
  54:Src/motion/compute_axis_commands.c **** 
  55:Src/motion/compute_axis_commands.c ****         error = rateCmd[ROLL] - sensors.gyro500Hz[ROLL];
  56:Src/motion/compute_axis_commands.c ****         ratePID[ROLL] = updatePID(error, dt500Hz, pidReset, &eepromConfig.PID[ROLL_RATE_PID]);
  57:Src/motion/compute_axis_commands.c **** 
  58:Src/motion/compute_axis_commands.c ****         error = rateCmd[PITCH] - sensors.gyro500Hz[PITCH];
  59:Src/motion/compute_axis_commands.c ****         ratePID[PITCH] = updatePID(error, dt500Hz, pidReset, &eepromConfig.PID[PITCH_RATE_PID]);
  60:Src/motion/compute_axis_commands.c **** 
  61:Src/motion/compute_axis_commands.c ****         error = rateCmd[YAW] + sensors.gyro500Hz[YAW];
  62:Src/motion/compute_axis_commands.c ****         ratePID[YAW] = updatePID(error, dt500Hz, pidReset, &eepromConfig.PID[YAW_RATE_PID]);
  63:Src/motion/compute_axis_commands.c **** 
  64:Src/motion/compute_axis_commands.c ****         ///////////////////////////////////
  65:Src/motion/compute_axis_commands.c **** 
  66:Src/motion/compute_axis_commands.c ****         throttleCmd = rxCommands[THROTTLE];
  67:Src/motion/compute_axis_commands.c ****     }
  68:Src/motion/compute_axis_commands.c ****     else if (mode == ROVER)
  77              		.loc 1 68 10 is_stmt 1 view .LVU12
  78              		.loc 1 68 13 is_stmt 0 view .LVU13
  79 002a 032B     		cmp	r3, #3
  80 002c 00F0F480 		beq	.L9
  81              	.L1:
  69:Src/motion/compute_axis_commands.c ****     {
  70:Src/motion/compute_axis_commands.c ****         speedCmd = rxCommands[PITCH];
  71:Src/motion/compute_axis_commands.c ****         steerCmd = rxCommands[ROLL];
  72:Src/motion/compute_axis_commands.c ****     }
  73:Src/motion/compute_axis_commands.c **** }
  82              		.loc 1 73 1 view .LVU14
  83 0030 BDEC028B 		vldm	sp!, {d8}
  84              		.cfi_remember_state
  85              		.cfi_restore 80
  86              		.cfi_restore 81
  87              		.cfi_def_cfa_offset 32
  88 0034 BDE8F087 		pop	{r4, r5, r6, r7, r8, r9, r10, pc}
  89              	.L8:
  90              		.cfi_restore_state
  32:Src/motion/compute_axis_commands.c ****         {
  91              		.loc 1 32 9 is_stmt 1 view .LVU15
  32:Src/motion/compute_axis_commands.c ****         {
  92              		.loc 1 32 24 is_stmt 0 view .LVU16
  93 0038 864B     		ldr	r3, .L11+20
  94 003a 1B78     		ldrb	r3, [r3]	@ zero_extendqisi2
  32:Src/motion/compute_axis_commands.c ****         {
  95              		.loc 1 32 12 view .LVU17
  96 003c 012B     		cmp	r3, #1
ARM GAS  /var/folders/9y/n02fl3g16gnf7ppy14xghdy80000gn/T//ccEteVD4.s 			page 4


  97 003e 00F0AB80 		beq	.L10
  98              	.L3:
  43:Src/motion/compute_axis_commands.c ****         {
  99              		.loc 1 43 9 is_stmt 1 view .LVU18
  43:Src/motion/compute_axis_commands.c ****         {
 100              		.loc 1 43 24 is_stmt 0 view .LVU19
 101 0042 844B     		ldr	r3, .L11+20
 102 0044 1B78     		ldrb	r3, [r3]	@ zero_extendqisi2
  43:Src/motion/compute_axis_commands.c ****         {
 103              		.loc 1 43 12 view .LVU20
 104 0046 002B     		cmp	r3, #0
 105 0048 40F0DF80 		bne	.L4
  45:Src/motion/compute_axis_commands.c ****             rateCmd[PITCH] = RATECURVE(rxCommands[PITCH]);
 106              		.loc 1 45 13 is_stmt 1 view .LVU21
  45:Src/motion/compute_axis_commands.c ****             rateCmd[PITCH] = RATECURVE(rxCommands[PITCH]);
 107              		.loc 1 45 29 is_stmt 0 view .LVU22
 108 004c 824E     		ldr	r6, .L11+24
 109 004e D6E91889 		ldrd	r8, [r6, #96]
 110 0052 824F     		ldr	r7, .L11+28
 111 0054 97ED008A 		vldr.32	s16, [r7]
 112 0058 68EE087A 		vmul.f32	s15, s16, s16
 113 005c 68EE277A 		vmul.f32	s15, s16, s15
 114 0060 17EE900A 		vmov	r0, s15
 115 0064 FFF7FEFF 		bl	__aeabi_f2d
 116              	.LVL3:
 117 0068 0246     		mov	r2, r0
 118 006a 0B46     		mov	r3, r1
 119 006c 4046     		mov	r0, r8
 120 006e 4946     		mov	r1, r9
 121 0070 FFF7FEFF 		bl	__aeabi_dmul
 122              	.LVL4:
 123 0074 0446     		mov	r4, r0
 124 0076 0D46     		mov	r5, r1
 125 0078 D6ED1A8A 		vldr.32	s17, [r6, #104]
 126 007c 68EE287A 		vmul.f32	s15, s16, s17
 127 0080 17EE900A 		vmov	r0, s15
 128 0084 FFF7FEFF 		bl	__aeabi_f2d
 129              	.LVL5:
 130 0088 0246     		mov	r2, r0
 131 008a 0B46     		mov	r3, r1
 132 008c 2046     		mov	r0, r4
 133 008e 2946     		mov	r1, r5
 134 0090 FFF7FEFF 		bl	__aeabi_dadd
 135              	.LVL6:
 136 0094 6AA3     		adr	r3, .L11
 137 0096 D3E90023 		ldrd	r2, [r3]
 138 009a FFF7FEFF 		bl	__aeabi_dmul
 139              	.LVL7:
 140 009e 0022     		movs	r2, #0
 141 00a0 6F4B     		ldr	r3, .L11+32
 142 00a2 FFF7FEFF 		bl	__aeabi_ddiv
 143              	.LVL8:
 144 00a6 FFF7FEFF 		bl	__aeabi_d2f
 145              	.LVL9:
  45:Src/motion/compute_axis_commands.c ****             rateCmd[PITCH] = RATECURVE(rxCommands[PITCH]);
 146              		.loc 1 45 27 view .LVU23
 147 00aa 6E4E     		ldr	r6, .L11+36
ARM GAS  /var/folders/9y/n02fl3g16gnf7ppy14xghdy80000gn/T//ccEteVD4.s 			page 5


 148 00ac 3060     		str	r0, [r6]	@ float
  45:Src/motion/compute_axis_commands.c ****             rateCmd[PITCH] = RATECURVE(rxCommands[PITCH]);
 149              		.loc 1 45 56 is_stmt 1 view .LVU24
  46:Src/motion/compute_axis_commands.c ****         }
 150              		.loc 1 46 13 view .LVU25
  46:Src/motion/compute_axis_commands.c ****         }
 151              		.loc 1 46 30 is_stmt 0 view .LVU26
 152 00ae 97ED018A 		vldr.32	s16, [r7, #4]
 153 00b2 68EE087A 		vmul.f32	s15, s16, s16
 154 00b6 68EE277A 		vmul.f32	s15, s16, s15
 155 00ba 17EE900A 		vmov	r0, s15
 156 00be FFF7FEFF 		bl	__aeabi_f2d
 157              	.LVL10:
 158 00c2 0246     		mov	r2, r0
 159 00c4 0B46     		mov	r3, r1
 160 00c6 4046     		mov	r0, r8
 161 00c8 4946     		mov	r1, r9
 162 00ca FFF7FEFF 		bl	__aeabi_dmul
 163              	.LVL11:
 164 00ce 0446     		mov	r4, r0
 165 00d0 0D46     		mov	r5, r1
 166 00d2 68EE887A 		vmul.f32	s15, s17, s16
 167 00d6 17EE900A 		vmov	r0, s15
 168 00da FFF7FEFF 		bl	__aeabi_f2d
 169              	.LVL12:
 170 00de 0246     		mov	r2, r0
 171 00e0 0B46     		mov	r3, r1
 172 00e2 2046     		mov	r0, r4
 173 00e4 2946     		mov	r1, r5
 174 00e6 FFF7FEFF 		bl	__aeabi_dadd
 175              	.LVL13:
 176 00ea 55A3     		adr	r3, .L11
 177 00ec D3E90023 		ldrd	r2, [r3]
 178 00f0 FFF7FEFF 		bl	__aeabi_dmul
 179              	.LVL14:
 180 00f4 0022     		movs	r2, #0
 181 00f6 5A4B     		ldr	r3, .L11+32
 182 00f8 FFF7FEFF 		bl	__aeabi_ddiv
 183              	.LVL15:
 184 00fc FFF7FEFF 		bl	__aeabi_d2f
 185              	.LVL16:
  46:Src/motion/compute_axis_commands.c ****         }
 186              		.loc 1 46 28 view .LVU27
 187 0100 7060     		str	r0, [r6, #4]	@ float
  46:Src/motion/compute_axis_commands.c ****         }
 188              		.loc 1 46 58 is_stmt 1 view .LVU28
 189              	.L5:
  53:Src/motion/compute_axis_commands.c **** 
 190              		.loc 1 53 9 view .LVU29
  53:Src/motion/compute_axis_commands.c **** 
 191              		.loc 1 53 34 is_stmt 0 view .LVU30
 192 0102 DFF858A1 		ldr	r10, .L11+28
 193 0106 DAED027A 		vldr.32	s15, [r10, #8]
  53:Src/motion/compute_axis_commands.c **** 
 194              		.loc 1 53 54 view .LVU31
 195 010a 534C     		ldr	r4, .L11+24
 196 010c 94ED1B7A 		vldr.32	s14, [r4, #108]
ARM GAS  /var/folders/9y/n02fl3g16gnf7ppy14xghdy80000gn/T//ccEteVD4.s 			page 6


  53:Src/motion/compute_axis_commands.c **** 
 197              		.loc 1 53 40 view .LVU32
 198 0110 67EE877A 		vmul.f32	s15, s15, s14
  53:Src/motion/compute_axis_commands.c **** 
 199              		.loc 1 53 22 view .LVU33
 200 0114 534D     		ldr	r5, .L11+36
 201 0116 C5ED027A 		vstr.32	s15, [r5, #8]
  55:Src/motion/compute_axis_commands.c ****         ratePID[ROLL] = updatePID(error, dt500Hz, pidReset, &eepromConfig.PID[ROLL_RATE_PID]);
 202              		.loc 1 55 9 is_stmt 1 view .LVU34
  55:Src/motion/compute_axis_commands.c ****         ratePID[ROLL] = updatePID(error, dt500Hz, pidReset, &eepromConfig.PID[ROLL_RATE_PID]);
 203              		.loc 1 55 24 is_stmt 0 view .LVU35
 204 011a 95ED000A 		vldr.32	s0, [r5]
  55:Src/motion/compute_axis_commands.c ****         ratePID[ROLL] = updatePID(error, dt500Hz, pidReset, &eepromConfig.PID[ROLL_RATE_PID]);
 205              		.loc 1 55 50 view .LVU36
 206 011e DFF86091 		ldr	r9, .L11+64
 207 0122 D9ED097A 		vldr.32	s15, [r9, #36]
 208              	.LVL17:
  56:Src/motion/compute_axis_commands.c **** 
 209              		.loc 1 56 9 is_stmt 1 view .LVU37
  56:Src/motion/compute_axis_commands.c **** 
 210              		.loc 1 56 25 is_stmt 0 view .LVU38
 211 0126 DFF84881 		ldr	r8, .L11+48
 212 012a 484F     		ldr	r7, .L11+12
 213 012c 04F18801 		add	r1, r4, #136
 214 0130 98F80000 		ldrb	r0, [r8]	@ zero_extendqisi2
 215 0134 D7ED000A 		vldr.32	s1, [r7]
 216 0138 30EE670A 		vsub.f32	s0, s0, s15
 217              	.LVL18:
  56:Src/motion/compute_axis_commands.c **** 
 218              		.loc 1 56 25 view .LVU39
 219 013c FFF7FEFF 		bl	updatePID
 220              	.LVL19:
  56:Src/motion/compute_axis_commands.c **** 
 221              		.loc 1 56 23 view .LVU40
 222 0140 494E     		ldr	r6, .L11+40
 223 0142 86ED000A 		vstr.32	s0, [r6]
  58:Src/motion/compute_axis_commands.c ****         ratePID[PITCH] = updatePID(error, dt500Hz, pidReset, &eepromConfig.PID[PITCH_RATE_PID]);
 224              		.loc 1 58 9 is_stmt 1 view .LVU41
  58:Src/motion/compute_axis_commands.c ****         ratePID[PITCH] = updatePID(error, dt500Hz, pidReset, &eepromConfig.PID[PITCH_RATE_PID]);
 225              		.loc 1 58 24 is_stmt 0 view .LVU42
 226 0146 95ED010A 		vldr.32	s0, [r5, #4]
  58:Src/motion/compute_axis_commands.c ****         ratePID[PITCH] = updatePID(error, dt500Hz, pidReset, &eepromConfig.PID[PITCH_RATE_PID]);
 227              		.loc 1 58 51 view .LVU43
 228 014a D9ED0A7A 		vldr.32	s15, [r9, #40]
 229              	.LVL20:
  59:Src/motion/compute_axis_commands.c **** 
 230              		.loc 1 59 9 is_stmt 1 view .LVU44
  59:Src/motion/compute_axis_commands.c **** 
 231              		.loc 1 59 26 is_stmt 0 view .LVU45
 232 014e 04F1A401 		add	r1, r4, #164
 233 0152 98F80000 		ldrb	r0, [r8]	@ zero_extendqisi2
 234 0156 D7ED000A 		vldr.32	s1, [r7]
 235 015a 30EE670A 		vsub.f32	s0, s0, s15
 236              	.LVL21:
  59:Src/motion/compute_axis_commands.c **** 
 237              		.loc 1 59 26 view .LVU46
 238 015e FFF7FEFF 		bl	updatePID
ARM GAS  /var/folders/9y/n02fl3g16gnf7ppy14xghdy80000gn/T//ccEteVD4.s 			page 7


 239              	.LVL22:
  59:Src/motion/compute_axis_commands.c **** 
 240              		.loc 1 59 24 view .LVU47
 241 0162 86ED010A 		vstr.32	s0, [r6, #4]
  61:Src/motion/compute_axis_commands.c ****         ratePID[YAW] = updatePID(error, dt500Hz, pidReset, &eepromConfig.PID[YAW_RATE_PID]);
 242              		.loc 1 61 9 is_stmt 1 view .LVU48
  61:Src/motion/compute_axis_commands.c ****         ratePID[YAW] = updatePID(error, dt500Hz, pidReset, &eepromConfig.PID[YAW_RATE_PID]);
 243              		.loc 1 61 24 is_stmt 0 view .LVU49
 244 0166 95ED020A 		vldr.32	s0, [r5, #8]
  61:Src/motion/compute_axis_commands.c ****         ratePID[YAW] = updatePID(error, dt500Hz, pidReset, &eepromConfig.PID[YAW_RATE_PID]);
 245              		.loc 1 61 49 view .LVU50
 246 016a D9ED0B7A 		vldr.32	s15, [r9, #44]
 247              	.LVL23:
  62:Src/motion/compute_axis_commands.c **** 
 248              		.loc 1 62 9 is_stmt 1 view .LVU51
  62:Src/motion/compute_axis_commands.c **** 
 249              		.loc 1 62 24 is_stmt 0 view .LVU52
 250 016e 04F1C001 		add	r1, r4, #192
 251 0172 98F80000 		ldrb	r0, [r8]	@ zero_extendqisi2
 252 0176 D7ED000A 		vldr.32	s1, [r7]
 253 017a 30EE270A 		vadd.f32	s0, s0, s15
 254              	.LVL24:
  62:Src/motion/compute_axis_commands.c **** 
 255              		.loc 1 62 24 view .LVU53
 256 017e FFF7FEFF 		bl	updatePID
 257              	.LVL25:
  62:Src/motion/compute_axis_commands.c **** 
 258              		.loc 1 62 22 view .LVU54
 259 0182 86ED020A 		vstr.32	s0, [r6, #8]
  66:Src/motion/compute_axis_commands.c ****     }
 260              		.loc 1 66 9 is_stmt 1 view .LVU55
  66:Src/motion/compute_axis_commands.c ****     }
 261              		.loc 1 66 33 is_stmt 0 view .LVU56
 262 0186 DAED037A 		vldr.32	s15, [r10, #12]
  66:Src/motion/compute_axis_commands.c ****     }
 263              		.loc 1 66 21 view .LVU57
 264 018a FCEEE77A 		vcvt.u32.f32	s15, s15
 265 018e 374B     		ldr	r3, .L11+44
 266 0190 17EE902A 		vmov	r2, s15	@ int
 267 0194 1A80     		strh	r2, [r3]	@ movhi
 268 0196 4BE7     		b	.L1
 269              	.L10:
  34:Src/motion/compute_axis_commands.c ****             error = standardRadianFormat(attCmd[ROLL] - sensors.attitude500Hz[ROLL]);
 270              		.loc 1 34 13 is_stmt 1 view .LVU58
  34:Src/motion/compute_axis_commands.c ****             error = standardRadianFormat(attCmd[ROLL] - sensors.attitude500Hz[ROLL]);
 271              		.loc 1 34 38 is_stmt 0 view .LVU59
 272 0198 DFF8C0A0 		ldr	r10, .L11+28
 273 019c DAED007A 		vldr.32	s15, [r10]
  34:Src/motion/compute_axis_commands.c ****             error = standardRadianFormat(attCmd[ROLL] - sensors.attitude500Hz[ROLL]);
 274              		.loc 1 34 59 view .LVU60
 275 01a0 2D4C     		ldr	r4, .L11+24
 276 01a2 94ED1C0A 		vldr.32	s0, [r4, #112]
  34:Src/motion/compute_axis_commands.c ****             error = standardRadianFormat(attCmd[ROLL] - sensors.attitude500Hz[ROLL]);
 277              		.loc 1 34 45 view .LVU61
 278 01a6 67EE807A 		vmul.f32	s15, s15, s0
  34:Src/motion/compute_axis_commands.c ****             error = standardRadianFormat(attCmd[ROLL] - sensors.attitude500Hz[ROLL]);
 279              		.loc 1 34 26 view .LVU62
ARM GAS  /var/folders/9y/n02fl3g16gnf7ppy14xghdy80000gn/T//ccEteVD4.s 			page 8


 280 01aa DFF8D890 		ldr	r9, .L11+68
 281 01ae C9ED007A 		vstr.32	s15, [r9]
  35:Src/motion/compute_axis_commands.c ****             attPID[ROLL] = updatePID(error, dt500Hz, pidReset, &eepromConfig.PID[ROLL_ATT_PID]);
 282              		.loc 1 35 13 is_stmt 1 view .LVU63
  35:Src/motion/compute_axis_commands.c ****             attPID[ROLL] = updatePID(error, dt500Hz, pidReset, &eepromConfig.PID[ROLL_ATT_PID]);
 283              		.loc 1 35 78 is_stmt 0 view .LVU64
 284 01b2 DFF8CC80 		ldr	r8, .L11+64
 285 01b6 98ED060A 		vldr.32	s0, [r8, #24]
  35:Src/motion/compute_axis_commands.c ****             attPID[ROLL] = updatePID(error, dt500Hz, pidReset, &eepromConfig.PID[ROLL_ATT_PID]);
 286              		.loc 1 35 21 view .LVU65
 287 01ba 37EEC00A 		vsub.f32	s0, s15, s0
 288 01be FFF7FEFF 		bl	standardRadianFormat
 289              	.LVL26:
  36:Src/motion/compute_axis_commands.c **** 
 290              		.loc 1 36 13 is_stmt 1 view .LVU66
  36:Src/motion/compute_axis_commands.c **** 
 291              		.loc 1 36 28 is_stmt 0 view .LVU67
 292 01c2 2B4F     		ldr	r7, .L11+48
 293 01c4 214E     		ldr	r6, .L11+12
 294 01c6 04F1DC01 		add	r1, r4, #220
 295 01ca 3878     		ldrb	r0, [r7]	@ zero_extendqisi2
 296 01cc D6ED000A 		vldr.32	s1, [r6]
 297 01d0 FFF7FEFF 		bl	updatePID
 298              	.LVL27:
  36:Src/motion/compute_axis_commands.c **** 
 299              		.loc 1 36 26 view .LVU68
 300 01d4 274D     		ldr	r5, .L11+52
 301 01d6 85ED000A 		vstr.32	s0, [r5]
  38:Src/motion/compute_axis_commands.c ****             error = standardRadianFormat(attCmd[PITCH] - sensors.attitude500Hz[PITCH]);
 302              		.loc 1 38 13 is_stmt 1 view .LVU69
  38:Src/motion/compute_axis_commands.c ****             error = standardRadianFormat(attCmd[PITCH] - sensors.attitude500Hz[PITCH]);
 303              		.loc 1 38 39 is_stmt 0 view .LVU70
 304 01da DAED017A 		vldr.32	s15, [r10, #4]
  38:Src/motion/compute_axis_commands.c ****             error = standardRadianFormat(attCmd[PITCH] - sensors.attitude500Hz[PITCH]);
 305              		.loc 1 38 61 view .LVU71
 306 01de 94ED1C0A 		vldr.32	s0, [r4, #112]
  38:Src/motion/compute_axis_commands.c ****             error = standardRadianFormat(attCmd[PITCH] - sensors.attitude500Hz[PITCH]);
 307              		.loc 1 38 47 view .LVU72
 308 01e2 67EE807A 		vmul.f32	s15, s15, s0
  38:Src/motion/compute_axis_commands.c ****             error = standardRadianFormat(attCmd[PITCH] - sensors.attitude500Hz[PITCH]);
 309              		.loc 1 38 27 view .LVU73
 310 01e6 C9ED017A 		vstr.32	s15, [r9, #4]
  39:Src/motion/compute_axis_commands.c ****             attPID[PITCH] = updatePID(error, dt500Hz, pidReset, &eepromConfig.PID[PITCH_ATT_PID]);
 311              		.loc 1 39 13 is_stmt 1 view .LVU74
  39:Src/motion/compute_axis_commands.c ****             attPID[PITCH] = updatePID(error, dt500Hz, pidReset, &eepromConfig.PID[PITCH_ATT_PID]);
 312              		.loc 1 39 79 is_stmt 0 view .LVU75
 313 01ea 98ED070A 		vldr.32	s0, [r8, #28]
  39:Src/motion/compute_axis_commands.c ****             attPID[PITCH] = updatePID(error, dt500Hz, pidReset, &eepromConfig.PID[PITCH_ATT_PID]);
 314              		.loc 1 39 21 view .LVU76
 315 01ee 37EEC00A 		vsub.f32	s0, s15, s0
 316 01f2 FFF7FEFF 		bl	standardRadianFormat
 317              	.LVL28:
  40:Src/motion/compute_axis_commands.c ****         }
 318              		.loc 1 40 13 is_stmt 1 view .LVU77
  40:Src/motion/compute_axis_commands.c ****         }
 319              		.loc 1 40 29 is_stmt 0 view .LVU78
 320 01f6 04F1F801 		add	r1, r4, #248
ARM GAS  /var/folders/9y/n02fl3g16gnf7ppy14xghdy80000gn/T//ccEteVD4.s 			page 9


 321 01fa 3878     		ldrb	r0, [r7]	@ zero_extendqisi2
 322 01fc D6ED000A 		vldr.32	s1, [r6]
 323 0200 FFF7FEFF 		bl	updatePID
 324              	.LVL29:
  40:Src/motion/compute_axis_commands.c ****         }
 325              		.loc 1 40 27 view .LVU79
 326 0204 85ED010A 		vstr.32	s0, [r5, #4]
 327 0208 1BE7     		b	.L3
 328              	.L4:
  50:Src/motion/compute_axis_commands.c ****             rateCmd[PITCH] = attPID[PITCH];
 329              		.loc 1 50 13 is_stmt 1 view .LVU80
  50:Src/motion/compute_axis_commands.c ****             rateCmd[PITCH] = attPID[PITCH];
 330              		.loc 1 50 35 is_stmt 0 view .LVU81
 331 020a 1A4A     		ldr	r2, .L11+52
 332 020c 1168     		ldr	r1, [r2]	@ float
  50:Src/motion/compute_axis_commands.c ****             rateCmd[PITCH] = attPID[PITCH];
 333              		.loc 1 50 27 view .LVU82
 334 020e 154B     		ldr	r3, .L11+36
 335 0210 1960     		str	r1, [r3]	@ float
  51:Src/motion/compute_axis_commands.c ****         }
 336              		.loc 1 51 13 is_stmt 1 view .LVU83
  51:Src/motion/compute_axis_commands.c ****         }
 337              		.loc 1 51 36 is_stmt 0 view .LVU84
 338 0212 5268     		ldr	r2, [r2, #4]	@ float
  51:Src/motion/compute_axis_commands.c ****         }
 339              		.loc 1 51 28 view .LVU85
 340 0214 5A60     		str	r2, [r3, #4]	@ float
 341 0216 74E7     		b	.L5
 342              	.L9:
  70:Src/motion/compute_axis_commands.c ****         steerCmd = rxCommands[ROLL];
 343              		.loc 1 70 9 is_stmt 1 view .LVU86
  70:Src/motion/compute_axis_commands.c ****         steerCmd = rxCommands[ROLL];
 344              		.loc 1 70 30 is_stmt 0 view .LVU87
 345 0218 104B     		ldr	r3, .L11+28
 346 021a D3ED017A 		vldr.32	s15, [r3, #4]
  70:Src/motion/compute_axis_commands.c ****         steerCmd = rxCommands[ROLL];
 347              		.loc 1 70 18 view .LVU88
 348 021e FDEEE77A 		vcvt.s32.f32	s15, s15
 349 0222 154A     		ldr	r2, .L11+56
 350 0224 17EE901A 		vmov	r1, s15	@ int
 351 0228 1180     		strh	r1, [r2]	@ movhi
  71:Src/motion/compute_axis_commands.c ****     }
 352              		.loc 1 71 9 is_stmt 1 view .LVU89
  71:Src/motion/compute_axis_commands.c ****     }
 353              		.loc 1 71 30 is_stmt 0 view .LVU90
 354 022a D3ED007A 		vldr.32	s15, [r3]
  71:Src/motion/compute_axis_commands.c ****     }
 355              		.loc 1 71 18 view .LVU91
 356 022e FDEEE77A 		vcvt.s32.f32	s15, s15
 357 0232 124B     		ldr	r3, .L11+60
 358 0234 17EE902A 		vmov	r2, s15	@ int
 359 0238 1A80     		strh	r2, [r3]	@ movhi
 360              		.loc 1 73 1 view .LVU92
 361 023a F9E6     		b	.L1
 362              	.L12:
 363 023c AFF30080 		.align	3
 364              	.L11:
ARM GAS  /var/folders/9y/n02fl3g16gnf7ppy14xghdy80000gn/T//ccEteVD4.s 			page 10


 365 0240 00000060 		.word	1610612736
 366 0244 FB210940 		.word	1074340347
 367 0248 BD370635 		.word	889599933
 368 024c 00000000 		.word	dt500Hz
 369 0250 00000000 		.word	mode
 370 0254 00000000 		.word	flightMode
 371 0258 00000000 		.word	eepromConfig
 372 025c 00000000 		.word	rxCommands
 373 0260 00806640 		.word	1080459264
 374 0264 00000000 		.word	.LANCHOR2
 375 0268 00000000 		.word	.LANCHOR3
 376 026c 00000000 		.word	throttleCmd
 377 0270 00000000 		.word	pidReset
 378 0274 00000000 		.word	.LANCHOR1
 379 0278 00000000 		.word	speedCmd
 380 027c 00000000 		.word	steerCmd
 381 0280 00000000 		.word	sensors
 382 0284 00000000 		.word	.LANCHOR0
 383              		.cfi_endproc
 384              	.LFE187:
 386              		.global	rateCmd
 387              		.global	ratePID
 388              		.global	attPID
 389              		.global	attCmd
 390              		.section	.bss.attCmd,"aw",%nobits
 391              		.align	2
 392              		.set	.LANCHOR0,. + 0
 395              	attCmd:
 396 0000 00000000 		.space	12
 396      00000000 
 396      00000000 
 397              		.section	.bss.attPID,"aw",%nobits
 398              		.align	2
 399              		.set	.LANCHOR1,. + 0
 402              	attPID:
 403 0000 00000000 		.space	12
 403      00000000 
 403      00000000 
 404              		.section	.bss.rateCmd,"aw",%nobits
 405              		.align	2
 406              		.set	.LANCHOR2,. + 0
 409              	rateCmd:
 410 0000 00000000 		.space	12
 410      00000000 
 410      00000000 
 411              		.section	.bss.ratePID,"aw",%nobits
 412              		.align	2
 413              		.set	.LANCHOR3,. + 0
 416              	ratePID:
 417 0000 00000000 		.space	12
 417      00000000 
 417      00000000 
 418              		.text
 419              	.Letext0:
 420              		.file 2 "/opt/homebrew/Cellar/arm-none-eabi-gcc/10.3-2021.07/gcc/arm-none-eabi/include/machine/_de
 421              		.file 3 "/opt/homebrew/Cellar/arm-none-eabi-gcc/10.3-2021.07/gcc/arm-none-eabi/include/sys/_stdint
 422              		.file 4 "Src/pid.h"
ARM GAS  /var/folders/9y/n02fl3g16gnf7ppy14xghdy80000gn/T//ccEteVD4.s 			page 11


 423              		.file 5 "Src/autodrone32.h"
 424              		.file 6 "Src/drv/drv_system.h"
 425              		.file 7 "Src/motion/process_commands.h"
 426              		.file 8 "Src/motion/compute_axis_commands.h"
 427              		.file 9 "Src/motion/mixer.h"
 428              		.file 10 "Src/drv/drv_tim.h"
 429              		.file 11 "Src/utilities.h"
ARM GAS  /var/folders/9y/n02fl3g16gnf7ppy14xghdy80000gn/T//ccEteVD4.s 			page 12


DEFINED SYMBOLS
                            *ABS*:0000000000000000 compute_axis_commands.c
/var/folders/9y/n02fl3g16gnf7ppy14xghdy80000gn/T//ccEteVD4.s:23     .text.computeAxisCommands:0000000000000000 $t
/var/folders/9y/n02fl3g16gnf7ppy14xghdy80000gn/T//ccEteVD4.s:31     .text.computeAxisCommands:0000000000000000 computeAxisCommands
/var/folders/9y/n02fl3g16gnf7ppy14xghdy80000gn/T//ccEteVD4.s:365    .text.computeAxisCommands:0000000000000240 $d
/var/folders/9y/n02fl3g16gnf7ppy14xghdy80000gn/T//ccEteVD4.s:409    .bss.rateCmd:0000000000000000 rateCmd
/var/folders/9y/n02fl3g16gnf7ppy14xghdy80000gn/T//ccEteVD4.s:416    .bss.ratePID:0000000000000000 ratePID
/var/folders/9y/n02fl3g16gnf7ppy14xghdy80000gn/T//ccEteVD4.s:402    .bss.attPID:0000000000000000 attPID
/var/folders/9y/n02fl3g16gnf7ppy14xghdy80000gn/T//ccEteVD4.s:395    .bss.attCmd:0000000000000000 attCmd
/var/folders/9y/n02fl3g16gnf7ppy14xghdy80000gn/T//ccEteVD4.s:391    .bss.attCmd:0000000000000000 $d
/var/folders/9y/n02fl3g16gnf7ppy14xghdy80000gn/T//ccEteVD4.s:398    .bss.attPID:0000000000000000 $d
/var/folders/9y/n02fl3g16gnf7ppy14xghdy80000gn/T//ccEteVD4.s:405    .bss.rateCmd:0000000000000000 $d
/var/folders/9y/n02fl3g16gnf7ppy14xghdy80000gn/T//ccEteVD4.s:412    .bss.ratePID:0000000000000000 $d

UNDEFINED SYMBOLS
__aeabi_f2d
__aeabi_dmul
__aeabi_dadd
__aeabi_ddiv
__aeabi_d2f
getTimerValue
updatePID
standardRadianFormat
dt500Hz
mode
flightMode
eepromConfig
rxCommands
throttleCmd
pidReset
speedCmd
steerCmd
sensors
