ARM GAS  /var/folders/9y/n02fl3g16gnf7ppy14xghdy80000gn/T//ccgSYaWy.s 			page 1


   1              		.cpu cortex-m7
   2              		.eabi_attribute 27, 1
   3              		.eabi_attribute 28, 1
   4              		.eabi_attribute 20, 1
   5              		.eabi_attribute 21, 1
   6              		.eabi_attribute 23, 3
   7              		.eabi_attribute 24, 1
   8              		.eabi_attribute 25, 1
   9              		.eabi_attribute 26, 1
  10              		.eabi_attribute 30, 1
  11              		.eabi_attribute 34, 1
  12              		.eabi_attribute 18, 4
  13              		.file	"compute_axis_commands.c"
  14              		.text
  15              	.Ltext0:
  16              		.cfi_sections	.debug_frame
  17              		.global	__aeabi_f2d
  18              		.global	__aeabi_dmul
  19              		.global	__aeabi_dadd
  20              		.global	__aeabi_ddiv
  21              		.global	__aeabi_d2f
  22              		.section	.text.computeAxisCommands,"ax",%progbits
  23              		.align	1
  24              		.global	computeAxisCommands
  25              		.arch armv7e-m
  26              		.syntax unified
  27              		.thumb
  28              		.thumb_func
  29              		.fpu fpv5-sp-d16
  31              	computeAxisCommands:
  32              	.LFB187:
  33              		.file 1 "Src/motion/compute_axis_commands.c"
   1:Src/motion/compute_axis_commands.c **** /** @file 		compute_axis_commands.c
   2:Src/motion/compute_axis_commands.c ****  *  @brief
   3:Src/motion/compute_axis_commands.c ****  *  	This file creates the inputs to the PID controller and sends values to the mixer.
   4:Src/motion/compute_axis_commands.c ****  *
   5:Src/motion/compute_axis_commands.c ****  *  @author 	Jeremy Wolfe
   6:Src/motion/compute_axis_commands.c ****  *  @date 		07 MAR 2022
   7:Src/motion/compute_axis_commands.c ****  */
   8:Src/motion/compute_axis_commands.c **** 
   9:Src/motion/compute_axis_commands.c **** /* Includes */
  10:Src/motion/compute_axis_commands.c **** #include "board.h"
  11:Src/motion/compute_axis_commands.c **** 
  12:Src/motion/compute_axis_commands.c **** /* Global Variables */
  13:Src/motion/compute_axis_commands.c **** float attCmd[3];
  14:Src/motion/compute_axis_commands.c **** float attPID[3];
  15:Src/motion/compute_axis_commands.c **** float ratePID[3];
  16:Src/motion/compute_axis_commands.c **** float rateCmd[3];
  17:Src/motion/compute_axis_commands.c **** 
  18:Src/motion/compute_axis_commands.c **** /** @brief Computes the commands that get sent to the mixer.
  19:Src/motion/compute_axis_commands.c ****  *
  20:Src/motion/compute_axis_commands.c ****  *  @return Void.
  21:Src/motion/compute_axis_commands.c ****  */
  22:Src/motion/compute_axis_commands.c **** void computeAxisCommands(void)
  23:Src/motion/compute_axis_commands.c **** {
  34              		.loc 1 23 1 view -0
  35              		.cfi_startproc
ARM GAS  /var/folders/9y/n02fl3g16gnf7ppy14xghdy80000gn/T//ccgSYaWy.s 			page 2


  36              		@ args = 0, pretend = 0, frame = 0
  37              		@ frame_needed = 0, uses_anonymous_args = 0
  38 0000 2DE9F047 		push	{r4, r5, r6, r7, r8, r9, r10, lr}
  39              		.cfi_def_cfa_offset 32
  40              		.cfi_offset 4, -32
  41              		.cfi_offset 5, -28
  42              		.cfi_offset 6, -24
  43              		.cfi_offset 7, -20
  44              		.cfi_offset 8, -16
  45              		.cfi_offset 9, -12
  46              		.cfi_offset 10, -8
  47              		.cfi_offset 14, -4
  48 0004 2DED028B 		vpush.64	{d8}
  49              		.cfi_def_cfa_offset 40
  50              		.cfi_offset 80, -40
  51              		.cfi_offset 81, -36
  24:Src/motion/compute_axis_commands.c ****     float error;
  52              		.loc 1 24 5 view .LVU1
  25:Src/motion/compute_axis_commands.c ****     uint16_t timerValue;
  53              		.loc 1 25 5 view .LVU2
  26:Src/motion/compute_axis_commands.c **** 
  27:Src/motion/compute_axis_commands.c ****     timerValue = getTimerValue();
  54              		.loc 1 27 5 view .LVU3
  55              		.loc 1 27 18 is_stmt 0 view .LVU4
  56 0008 FFF7FEFF 		bl	getTimerValue
  57              	.LVL0:
  58 000c 07EE900A 		vmov	s15, r0	@ int
  59              	.LVL1:
  28:Src/motion/compute_axis_commands.c ****     dt500Hz = (float)timerValue * 0.0000005f; // For integrations in 500 Hz loop
  60              		.loc 1 28 5 is_stmt 1 view .LVU5
  61              		.loc 1 28 15 is_stmt 0 view .LVU6
  62 0010 F8EE677A 		vcvt.f32.u32	s15, s15
  63              	.LVL2:
  64              		.loc 1 28 33 view .LVU7
  65 0014 9FED7E7A 		vldr.32	s14, .L7+8
  66 0018 67EE877A 		vmul.f32	s15, s15, s14
  67              		.loc 1 28 13 view .LVU8
  68 001c 7D4B     		ldr	r3, .L7+12
  69 001e C3ED007A 		vstr.32	s15, [r3]
  29:Src/motion/compute_axis_commands.c **** 
  30:Src/motion/compute_axis_commands.c ****     if (flightMode == ANGLE)
  70              		.loc 1 30 5 is_stmt 1 view .LVU9
  71              		.loc 1 30 20 is_stmt 0 view .LVU10
  72 0022 7D4B     		ldr	r3, .L7+16
  73 0024 1B78     		ldrb	r3, [r3]	@ zero_extendqisi2
  74              		.loc 1 30 8 view .LVU11
  75 0026 012B     		cmp	r3, #1
  76 0028 00F0AE80 		beq	.L6
  77              	.L2:
  31:Src/motion/compute_axis_commands.c ****     {
  32:Src/motion/compute_axis_commands.c ****         attCmd[ROLL] = rxCommands[ROLL] * eepromConfig.attitudeScaling;
  33:Src/motion/compute_axis_commands.c ****         error = standardRadianFormat(attCmd[ROLL] - sensors.attitude500Hz[ROLL]);
  34:Src/motion/compute_axis_commands.c ****         attPID[ROLL] = updatePID(error, dt500Hz, pidReset, &eepromConfig.PID[ROLL_ATT_PID]);
  35:Src/motion/compute_axis_commands.c **** 
  36:Src/motion/compute_axis_commands.c ****         attCmd[PITCH] = rxCommands[PITCH] * eepromConfig.attitudeScaling;
  37:Src/motion/compute_axis_commands.c ****         error = standardRadianFormat(attCmd[PITCH] - sensors.attitude500Hz[PITCH]);
  38:Src/motion/compute_axis_commands.c ****         attPID[PITCH] = updatePID(error, dt500Hz, pidReset, &eepromConfig.PID[PITCH_ATT_PID]);
ARM GAS  /var/folders/9y/n02fl3g16gnf7ppy14xghdy80000gn/T//ccgSYaWy.s 			page 3


  39:Src/motion/compute_axis_commands.c ****     }
  40:Src/motion/compute_axis_commands.c **** 
  41:Src/motion/compute_axis_commands.c ****     if (flightMode == RATE)
  78              		.loc 1 41 5 is_stmt 1 view .LVU12
  79              		.loc 1 41 20 is_stmt 0 view .LVU13
  80 002c 7A4B     		ldr	r3, .L7+16
  81 002e 1B78     		ldrb	r3, [r3]	@ zero_extendqisi2
  82              		.loc 1 41 8 view .LVU14
  83 0030 002B     		cmp	r3, #0
  84 0032 40F0E280 		bne	.L3
  42:Src/motion/compute_axis_commands.c ****     {
  43:Src/motion/compute_axis_commands.c ****         rateCmd[ROLL] = RATECURVE(rxCommands[ROLL]);
  85              		.loc 1 43 9 is_stmt 1 view .LVU15
  86              		.loc 1 43 25 is_stmt 0 view .LVU16
  87 0036 794E     		ldr	r6, .L7+20
  88 0038 D6E91889 		ldrd	r8, [r6, #96]
  89 003c 784F     		ldr	r7, .L7+24
  90 003e 97ED008A 		vldr.32	s16, [r7]
  91 0042 68EE087A 		vmul.f32	s15, s16, s16
  92 0046 68EE277A 		vmul.f32	s15, s16, s15
  93 004a 17EE900A 		vmov	r0, s15
  94 004e FFF7FEFF 		bl	__aeabi_f2d
  95              	.LVL3:
  96 0052 0246     		mov	r2, r0
  97 0054 0B46     		mov	r3, r1
  98 0056 4046     		mov	r0, r8
  99 0058 4946     		mov	r1, r9
 100 005a FFF7FEFF 		bl	__aeabi_dmul
 101              	.LVL4:
 102 005e 0446     		mov	r4, r0
 103 0060 0D46     		mov	r5, r1
 104 0062 D6ED1A8A 		vldr.32	s17, [r6, #104]
 105 0066 68EE287A 		vmul.f32	s15, s16, s17
 106 006a 17EE900A 		vmov	r0, s15
 107 006e FFF7FEFF 		bl	__aeabi_f2d
 108              	.LVL5:
 109 0072 0246     		mov	r2, r0
 110 0074 0B46     		mov	r3, r1
 111 0076 2046     		mov	r0, r4
 112 0078 2946     		mov	r1, r5
 113 007a FFF7FEFF 		bl	__aeabi_dadd
 114              	.LVL6:
 115 007e 62A3     		adr	r3, .L7
 116 0080 D3E90023 		ldrd	r2, [r3]
 117 0084 FFF7FEFF 		bl	__aeabi_dmul
 118              	.LVL7:
 119 0088 0022     		movs	r2, #0
 120 008a 664B     		ldr	r3, .L7+28
 121 008c FFF7FEFF 		bl	__aeabi_ddiv
 122              	.LVL8:
 123 0090 FFF7FEFF 		bl	__aeabi_d2f
 124              	.LVL9:
 125              		.loc 1 43 23 view .LVU17
 126 0094 644E     		ldr	r6, .L7+32
 127 0096 3060     		str	r0, [r6]	@ float
 128              		.loc 1 43 52 is_stmt 1 view .LVU18
  44:Src/motion/compute_axis_commands.c ****         rateCmd[PITCH] = RATECURVE(rxCommands[PITCH]);
ARM GAS  /var/folders/9y/n02fl3g16gnf7ppy14xghdy80000gn/T//ccgSYaWy.s 			page 4


 129              		.loc 1 44 9 view .LVU19
 130              		.loc 1 44 26 is_stmt 0 view .LVU20
 131 0098 97ED018A 		vldr.32	s16, [r7, #4]
 132 009c 68EE087A 		vmul.f32	s15, s16, s16
 133 00a0 68EE277A 		vmul.f32	s15, s16, s15
 134 00a4 17EE900A 		vmov	r0, s15
 135 00a8 FFF7FEFF 		bl	__aeabi_f2d
 136              	.LVL10:
 137 00ac 0246     		mov	r2, r0
 138 00ae 0B46     		mov	r3, r1
 139 00b0 4046     		mov	r0, r8
 140 00b2 4946     		mov	r1, r9
 141 00b4 FFF7FEFF 		bl	__aeabi_dmul
 142              	.LVL11:
 143 00b8 0446     		mov	r4, r0
 144 00ba 0D46     		mov	r5, r1
 145 00bc 68EE887A 		vmul.f32	s15, s17, s16
 146 00c0 17EE900A 		vmov	r0, s15
 147 00c4 FFF7FEFF 		bl	__aeabi_f2d
 148              	.LVL12:
 149 00c8 0246     		mov	r2, r0
 150 00ca 0B46     		mov	r3, r1
 151 00cc 2046     		mov	r0, r4
 152 00ce 2946     		mov	r1, r5
 153 00d0 FFF7FEFF 		bl	__aeabi_dadd
 154              	.LVL13:
 155 00d4 4CA3     		adr	r3, .L7
 156 00d6 D3E90023 		ldrd	r2, [r3]
 157 00da FFF7FEFF 		bl	__aeabi_dmul
 158              	.LVL14:
 159 00de 0022     		movs	r2, #0
 160 00e0 504B     		ldr	r3, .L7+28
 161 00e2 FFF7FEFF 		bl	__aeabi_ddiv
 162              	.LVL15:
 163 00e6 FFF7FEFF 		bl	__aeabi_d2f
 164              	.LVL16:
 165              		.loc 1 44 24 view .LVU21
 166 00ea 7060     		str	r0, [r6, #4]	@ float
 167              		.loc 1 44 54 is_stmt 1 view .LVU22
 168              	.L4:
  45:Src/motion/compute_axis_commands.c ****     }
  46:Src/motion/compute_axis_commands.c ****     else
  47:Src/motion/compute_axis_commands.c ****     {
  48:Src/motion/compute_axis_commands.c ****         rateCmd[ROLL] = attPID[ROLL];
  49:Src/motion/compute_axis_commands.c ****         rateCmd[PITCH] = attPID[PITCH];
  50:Src/motion/compute_axis_commands.c ****     }
  51:Src/motion/compute_axis_commands.c ****     rateCmd[YAW] = rxCommands[YAW] * eepromConfig.yawRateScaling;
 169              		.loc 1 51 5 view .LVU23
 170              		.loc 1 51 30 is_stmt 0 view .LVU24
 171 00ec DFF830A1 		ldr	r10, .L7+24
 172 00f0 DAED027A 		vldr.32	s15, [r10, #8]
 173              		.loc 1 51 50 view .LVU25
 174 00f4 494C     		ldr	r4, .L7+20
 175 00f6 94ED1B7A 		vldr.32	s14, [r4, #108]
 176              		.loc 1 51 36 view .LVU26
 177 00fa 67EE877A 		vmul.f32	s15, s15, s14
 178              		.loc 1 51 18 view .LVU27
ARM GAS  /var/folders/9y/n02fl3g16gnf7ppy14xghdy80000gn/T//ccgSYaWy.s 			page 5


 179 00fe 4A4D     		ldr	r5, .L7+32
 180 0100 C5ED027A 		vstr.32	s15, [r5, #8]
  52:Src/motion/compute_axis_commands.c **** 
  53:Src/motion/compute_axis_commands.c ****     error = rateCmd[ROLL] - sensors.gyro500Hz[ROLL];
 181              		.loc 1 53 5 is_stmt 1 view .LVU28
 182              		.loc 1 53 20 is_stmt 0 view .LVU29
 183 0104 95ED000A 		vldr.32	s0, [r5]
 184              		.loc 1 53 46 view .LVU30
 185 0108 DFF83091 		ldr	r9, .L7+52
 186 010c D9ED097A 		vldr.32	s15, [r9, #36]
 187              	.LVL17:
  54:Src/motion/compute_axis_commands.c ****     ratePID[ROLL] = updatePID(error, dt500Hz, pidReset, &eepromConfig.PID[ROLL_RATE_PID]);
 188              		.loc 1 54 5 is_stmt 1 view .LVU31
 189              		.loc 1 54 21 is_stmt 0 view .LVU32
 190 0110 DFF82081 		ldr	r8, .L7+44
 191 0114 3F4F     		ldr	r7, .L7+12
 192 0116 04F18801 		add	r1, r4, #136
 193 011a 98F80000 		ldrb	r0, [r8]	@ zero_extendqisi2
 194 011e D7ED000A 		vldr.32	s1, [r7]
 195 0122 30EE670A 		vsub.f32	s0, s0, s15
 196              	.LVL18:
 197              		.loc 1 54 21 view .LVU33
 198 0126 FFF7FEFF 		bl	updatePID
 199              	.LVL19:
 200              		.loc 1 54 19 view .LVU34
 201 012a 404E     		ldr	r6, .L7+36
 202 012c 86ED000A 		vstr.32	s0, [r6]
  55:Src/motion/compute_axis_commands.c **** 
  56:Src/motion/compute_axis_commands.c ****     error = rateCmd[PITCH] - sensors.gyro500Hz[PITCH];
 203              		.loc 1 56 5 is_stmt 1 view .LVU35
 204              		.loc 1 56 20 is_stmt 0 view .LVU36
 205 0130 95ED010A 		vldr.32	s0, [r5, #4]
 206              		.loc 1 56 47 view .LVU37
 207 0134 D9ED0A7A 		vldr.32	s15, [r9, #40]
 208              	.LVL20:
  57:Src/motion/compute_axis_commands.c ****     ratePID[PITCH] = updatePID(error, dt500Hz, pidReset, &eepromConfig.PID[PITCH_RATE_PID]);
 209              		.loc 1 57 5 is_stmt 1 view .LVU38
 210              		.loc 1 57 22 is_stmt 0 view .LVU39
 211 0138 04F1A401 		add	r1, r4, #164
 212 013c 98F80000 		ldrb	r0, [r8]	@ zero_extendqisi2
 213 0140 D7ED000A 		vldr.32	s1, [r7]
 214 0144 30EE670A 		vsub.f32	s0, s0, s15
 215              	.LVL21:
 216              		.loc 1 57 22 view .LVU40
 217 0148 FFF7FEFF 		bl	updatePID
 218              	.LVL22:
 219              		.loc 1 57 20 view .LVU41
 220 014c 86ED010A 		vstr.32	s0, [r6, #4]
  58:Src/motion/compute_axis_commands.c **** 
  59:Src/motion/compute_axis_commands.c ****     error = rateCmd[YAW] + sensors.gyro500Hz[YAW];
 221              		.loc 1 59 5 is_stmt 1 view .LVU42
 222              		.loc 1 59 20 is_stmt 0 view .LVU43
 223 0150 95ED020A 		vldr.32	s0, [r5, #8]
 224              		.loc 1 59 45 view .LVU44
 225 0154 D9ED0B7A 		vldr.32	s15, [r9, #44]
 226              	.LVL23:
  60:Src/motion/compute_axis_commands.c ****     ratePID[YAW] = updatePID(error, dt500Hz, pidReset, &eepromConfig.PID[YAW_RATE_PID]);
ARM GAS  /var/folders/9y/n02fl3g16gnf7ppy14xghdy80000gn/T//ccgSYaWy.s 			page 6


 227              		.loc 1 60 5 is_stmt 1 view .LVU45
 228              		.loc 1 60 20 is_stmt 0 view .LVU46
 229 0158 04F1C001 		add	r1, r4, #192
 230 015c 98F80000 		ldrb	r0, [r8]	@ zero_extendqisi2
 231 0160 D7ED000A 		vldr.32	s1, [r7]
 232 0164 30EE270A 		vadd.f32	s0, s0, s15
 233              	.LVL24:
 234              		.loc 1 60 20 view .LVU47
 235 0168 FFF7FEFF 		bl	updatePID
 236              	.LVL25:
 237              		.loc 1 60 18 view .LVU48
 238 016c 86ED020A 		vstr.32	s0, [r6, #8]
  61:Src/motion/compute_axis_commands.c **** 
  62:Src/motion/compute_axis_commands.c ****     ///////////////////////////////////
  63:Src/motion/compute_axis_commands.c **** 
  64:Src/motion/compute_axis_commands.c ****     throttleCmd = rxCommands[THROTTLE];
 239              		.loc 1 64 5 is_stmt 1 view .LVU49
 240              		.loc 1 64 29 is_stmt 0 view .LVU50
 241 0170 DAED037A 		vldr.32	s15, [r10, #12]
 242              		.loc 1 64 17 view .LVU51
 243 0174 FCEEE77A 		vcvt.u32.f32	s15, s15
 244 0178 2D4B     		ldr	r3, .L7+40
 245 017a 17EE902A 		vmov	r2, s15	@ int
 246 017e 1A80     		strh	r2, [r3]	@ movhi
  65:Src/motion/compute_axis_commands.c **** }
 247              		.loc 1 65 1 view .LVU52
 248 0180 BDEC028B 		vldm	sp!, {d8}
 249              		.cfi_remember_state
 250              		.cfi_restore 80
 251              		.cfi_restore 81
 252              		.cfi_def_cfa_offset 32
 253 0184 BDE8F087 		pop	{r4, r5, r6, r7, r8, r9, r10, pc}
 254              	.L6:
 255              		.cfi_restore_state
  32:Src/motion/compute_axis_commands.c ****         error = standardRadianFormat(attCmd[ROLL] - sensors.attitude500Hz[ROLL]);
 256              		.loc 1 32 9 is_stmt 1 view .LVU53
  32:Src/motion/compute_axis_commands.c ****         error = standardRadianFormat(attCmd[ROLL] - sensors.attitude500Hz[ROLL]);
 257              		.loc 1 32 34 is_stmt 0 view .LVU54
 258 0188 DFF894A0 		ldr	r10, .L7+24
 259 018c DAED007A 		vldr.32	s15, [r10]
  32:Src/motion/compute_axis_commands.c ****         error = standardRadianFormat(attCmd[ROLL] - sensors.attitude500Hz[ROLL]);
 260              		.loc 1 32 55 view .LVU55
 261 0190 224C     		ldr	r4, .L7+20
 262 0192 94ED1C0A 		vldr.32	s0, [r4, #112]
  32:Src/motion/compute_axis_commands.c ****         error = standardRadianFormat(attCmd[ROLL] - sensors.attitude500Hz[ROLL]);
 263              		.loc 1 32 41 view .LVU56
 264 0196 67EE807A 		vmul.f32	s15, s15, s0
  32:Src/motion/compute_axis_commands.c ****         error = standardRadianFormat(attCmd[ROLL] - sensors.attitude500Hz[ROLL]);
 265              		.loc 1 32 22 view .LVU57
 266 019a DFF8A490 		ldr	r9, .L7+56
 267 019e C9ED007A 		vstr.32	s15, [r9]
  33:Src/motion/compute_axis_commands.c ****         attPID[ROLL] = updatePID(error, dt500Hz, pidReset, &eepromConfig.PID[ROLL_ATT_PID]);
 268              		.loc 1 33 9 is_stmt 1 view .LVU58
  33:Src/motion/compute_axis_commands.c ****         attPID[ROLL] = updatePID(error, dt500Hz, pidReset, &eepromConfig.PID[ROLL_ATT_PID]);
 269              		.loc 1 33 74 is_stmt 0 view .LVU59
 270 01a2 DFF89880 		ldr	r8, .L7+52
 271 01a6 98ED060A 		vldr.32	s0, [r8, #24]
ARM GAS  /var/folders/9y/n02fl3g16gnf7ppy14xghdy80000gn/T//ccgSYaWy.s 			page 7


  33:Src/motion/compute_axis_commands.c ****         attPID[ROLL] = updatePID(error, dt500Hz, pidReset, &eepromConfig.PID[ROLL_ATT_PID]);
 272              		.loc 1 33 17 view .LVU60
 273 01aa 37EEC00A 		vsub.f32	s0, s15, s0
 274 01ae FFF7FEFF 		bl	standardRadianFormat
 275              	.LVL26:
  34:Src/motion/compute_axis_commands.c **** 
 276              		.loc 1 34 9 is_stmt 1 view .LVU61
  34:Src/motion/compute_axis_commands.c **** 
 277              		.loc 1 34 24 is_stmt 0 view .LVU62
 278 01b2 204F     		ldr	r7, .L7+44
 279 01b4 174E     		ldr	r6, .L7+12
 280 01b6 04F1DC01 		add	r1, r4, #220
 281 01ba 3878     		ldrb	r0, [r7]	@ zero_extendqisi2
 282 01bc D6ED000A 		vldr.32	s1, [r6]
 283 01c0 FFF7FEFF 		bl	updatePID
 284              	.LVL27:
  34:Src/motion/compute_axis_commands.c **** 
 285              		.loc 1 34 22 view .LVU63
 286 01c4 1C4D     		ldr	r5, .L7+48
 287 01c6 85ED000A 		vstr.32	s0, [r5]
  36:Src/motion/compute_axis_commands.c ****         error = standardRadianFormat(attCmd[PITCH] - sensors.attitude500Hz[PITCH]);
 288              		.loc 1 36 9 is_stmt 1 view .LVU64
  36:Src/motion/compute_axis_commands.c ****         error = standardRadianFormat(attCmd[PITCH] - sensors.attitude500Hz[PITCH]);
 289              		.loc 1 36 35 is_stmt 0 view .LVU65
 290 01ca DAED017A 		vldr.32	s15, [r10, #4]
  36:Src/motion/compute_axis_commands.c ****         error = standardRadianFormat(attCmd[PITCH] - sensors.attitude500Hz[PITCH]);
 291              		.loc 1 36 57 view .LVU66
 292 01ce 94ED1C0A 		vldr.32	s0, [r4, #112]
  36:Src/motion/compute_axis_commands.c ****         error = standardRadianFormat(attCmd[PITCH] - sensors.attitude500Hz[PITCH]);
 293              		.loc 1 36 43 view .LVU67
 294 01d2 67EE807A 		vmul.f32	s15, s15, s0
  36:Src/motion/compute_axis_commands.c ****         error = standardRadianFormat(attCmd[PITCH] - sensors.attitude500Hz[PITCH]);
 295              		.loc 1 36 23 view .LVU68
 296 01d6 C9ED017A 		vstr.32	s15, [r9, #4]
  37:Src/motion/compute_axis_commands.c ****         attPID[PITCH] = updatePID(error, dt500Hz, pidReset, &eepromConfig.PID[PITCH_ATT_PID]);
 297              		.loc 1 37 9 is_stmt 1 view .LVU69
  37:Src/motion/compute_axis_commands.c ****         attPID[PITCH] = updatePID(error, dt500Hz, pidReset, &eepromConfig.PID[PITCH_ATT_PID]);
 298              		.loc 1 37 75 is_stmt 0 view .LVU70
 299 01da 98ED070A 		vldr.32	s0, [r8, #28]
  37:Src/motion/compute_axis_commands.c ****         attPID[PITCH] = updatePID(error, dt500Hz, pidReset, &eepromConfig.PID[PITCH_ATT_PID]);
 300              		.loc 1 37 17 view .LVU71
 301 01de 37EEC00A 		vsub.f32	s0, s15, s0
 302 01e2 FFF7FEFF 		bl	standardRadianFormat
 303              	.LVL28:
  38:Src/motion/compute_axis_commands.c ****     }
 304              		.loc 1 38 9 is_stmt 1 view .LVU72
  38:Src/motion/compute_axis_commands.c ****     }
 305              		.loc 1 38 25 is_stmt 0 view .LVU73
 306 01e6 04F1F801 		add	r1, r4, #248
 307 01ea 3878     		ldrb	r0, [r7]	@ zero_extendqisi2
 308 01ec D6ED000A 		vldr.32	s1, [r6]
 309 01f0 FFF7FEFF 		bl	updatePID
 310              	.LVL29:
  38:Src/motion/compute_axis_commands.c ****     }
 311              		.loc 1 38 23 view .LVU74
 312 01f4 85ED010A 		vstr.32	s0, [r5, #4]
 313 01f8 18E7     		b	.L2
ARM GAS  /var/folders/9y/n02fl3g16gnf7ppy14xghdy80000gn/T//ccgSYaWy.s 			page 8


 314              	.L3:
  48:Src/motion/compute_axis_commands.c ****         rateCmd[PITCH] = attPID[PITCH];
 315              		.loc 1 48 9 is_stmt 1 view .LVU75
  48:Src/motion/compute_axis_commands.c ****         rateCmd[PITCH] = attPID[PITCH];
 316              		.loc 1 48 31 is_stmt 0 view .LVU76
 317 01fa 0F4A     		ldr	r2, .L7+48
 318 01fc 1168     		ldr	r1, [r2]	@ float
  48:Src/motion/compute_axis_commands.c ****         rateCmd[PITCH] = attPID[PITCH];
 319              		.loc 1 48 23 view .LVU77
 320 01fe 0A4B     		ldr	r3, .L7+32
 321 0200 1960     		str	r1, [r3]	@ float
  49:Src/motion/compute_axis_commands.c ****     }
 322              		.loc 1 49 9 is_stmt 1 view .LVU78
  49:Src/motion/compute_axis_commands.c ****     }
 323              		.loc 1 49 32 is_stmt 0 view .LVU79
 324 0202 5268     		ldr	r2, [r2, #4]	@ float
  49:Src/motion/compute_axis_commands.c ****     }
 325              		.loc 1 49 24 view .LVU80
 326 0204 5A60     		str	r2, [r3, #4]	@ float
 327 0206 71E7     		b	.L4
 328              	.L8:
 329              		.align	3
 330              	.L7:
 331 0208 00000060 		.word	1610612736
 332 020c FB210940 		.word	1074340347
 333 0210 BD370635 		.word	889599933
 334 0214 00000000 		.word	dt500Hz
 335 0218 00000000 		.word	flightMode
 336 021c 00000000 		.word	eepromConfig
 337 0220 00000000 		.word	rxCommands
 338 0224 00806640 		.word	1080459264
 339 0228 00000000 		.word	.LANCHOR2
 340 022c 00000000 		.word	.LANCHOR3
 341 0230 00000000 		.word	throttleCmd
 342 0234 00000000 		.word	pidReset
 343 0238 00000000 		.word	.LANCHOR1
 344 023c 00000000 		.word	sensors
 345 0240 00000000 		.word	.LANCHOR0
 346              		.cfi_endproc
 347              	.LFE187:
 349              		.global	rateCmd
 350              		.global	ratePID
 351              		.global	attPID
 352              		.global	attCmd
 353              		.section	.bss.attCmd,"aw",%nobits
 354              		.align	2
 355              		.set	.LANCHOR0,. + 0
 358              	attCmd:
 359 0000 00000000 		.space	12
 359      00000000 
 359      00000000 
 360              		.section	.bss.attPID,"aw",%nobits
 361              		.align	2
 362              		.set	.LANCHOR1,. + 0
 365              	attPID:
 366 0000 00000000 		.space	12
 366      00000000 
ARM GAS  /var/folders/9y/n02fl3g16gnf7ppy14xghdy80000gn/T//ccgSYaWy.s 			page 9


 366      00000000 
 367              		.section	.bss.rateCmd,"aw",%nobits
 368              		.align	2
 369              		.set	.LANCHOR2,. + 0
 372              	rateCmd:
 373 0000 00000000 		.space	12
 373      00000000 
 373      00000000 
 374              		.section	.bss.ratePID,"aw",%nobits
 375              		.align	2
 376              		.set	.LANCHOR3,. + 0
 379              	ratePID:
 380 0000 00000000 		.space	12
 380      00000000 
 380      00000000 
 381              		.text
 382              	.Letext0:
 383              		.file 2 "/opt/homebrew/Cellar/arm-none-eabi-gcc/10.3-2021.07/gcc/arm-none-eabi/include/machine/_de
 384              		.file 3 "/opt/homebrew/Cellar/arm-none-eabi-gcc/10.3-2021.07/gcc/arm-none-eabi/include/sys/_stdint
 385              		.file 4 "Src/pid.h"
 386              		.file 5 "Src/baredrones32.h"
 387              		.file 6 "Src/drv/drv_system.h"
 388              		.file 7 "Src/motion/process_commands.h"
 389              		.file 8 "Src/motion/compute_axis_commands.h"
 390              		.file 9 "Src/motion/mixer.h"
 391              		.file 10 "Src/drv/drv_tim.h"
 392              		.file 11 "Src/utilities.h"
ARM GAS  /var/folders/9y/n02fl3g16gnf7ppy14xghdy80000gn/T//ccgSYaWy.s 			page 10


DEFINED SYMBOLS
                            *ABS*:0000000000000000 compute_axis_commands.c
/var/folders/9y/n02fl3g16gnf7ppy14xghdy80000gn/T//ccgSYaWy.s:23     .text.computeAxisCommands:0000000000000000 $t
/var/folders/9y/n02fl3g16gnf7ppy14xghdy80000gn/T//ccgSYaWy.s:31     .text.computeAxisCommands:0000000000000000 computeAxisCommands
/var/folders/9y/n02fl3g16gnf7ppy14xghdy80000gn/T//ccgSYaWy.s:331    .text.computeAxisCommands:0000000000000208 $d
/var/folders/9y/n02fl3g16gnf7ppy14xghdy80000gn/T//ccgSYaWy.s:372    .bss.rateCmd:0000000000000000 rateCmd
/var/folders/9y/n02fl3g16gnf7ppy14xghdy80000gn/T//ccgSYaWy.s:379    .bss.ratePID:0000000000000000 ratePID
/var/folders/9y/n02fl3g16gnf7ppy14xghdy80000gn/T//ccgSYaWy.s:365    .bss.attPID:0000000000000000 attPID
/var/folders/9y/n02fl3g16gnf7ppy14xghdy80000gn/T//ccgSYaWy.s:358    .bss.attCmd:0000000000000000 attCmd
/var/folders/9y/n02fl3g16gnf7ppy14xghdy80000gn/T//ccgSYaWy.s:354    .bss.attCmd:0000000000000000 $d
/var/folders/9y/n02fl3g16gnf7ppy14xghdy80000gn/T//ccgSYaWy.s:361    .bss.attPID:0000000000000000 $d
/var/folders/9y/n02fl3g16gnf7ppy14xghdy80000gn/T//ccgSYaWy.s:368    .bss.rateCmd:0000000000000000 $d
/var/folders/9y/n02fl3g16gnf7ppy14xghdy80000gn/T//ccgSYaWy.s:375    .bss.ratePID:0000000000000000 $d

UNDEFINED SYMBOLS
__aeabi_f2d
__aeabi_dmul
__aeabi_dadd
__aeabi_ddiv
__aeabi_d2f
getTimerValue
updatePID
standardRadianFormat
dt500Hz
flightMode
eepromConfig
rxCommands
throttleCmd
pidReset
sensors
