ARM GAS  /var/folders/9y/n02fl3g16gnf7ppy14xghdy80000gn/T//ccnyZKFK.s 			page 1


   1              		.cpu cortex-m7
   2              		.eabi_attribute 27, 1
   3              		.eabi_attribute 28, 1
   4              		.eabi_attribute 20, 1
   5              		.eabi_attribute 21, 1
   6              		.eabi_attribute 23, 3
   7              		.eabi_attribute 24, 1
   8              		.eabi_attribute 25, 1
   9              		.eabi_attribute 26, 1
  10              		.eabi_attribute 30, 1
  11              		.eabi_attribute 34, 1
  12              		.eabi_attribute 18, 4
  13              		.file	"drv_tim.c"
  14              		.text
  15              	.Ltext0:
  16              		.cfi_sections	.debug_frame
  17              		.section	.text.tim9Init,"ax",%progbits
  18              		.align	1
  19              		.global	tim9Init
  20              		.arch armv7e-m
  21              		.syntax unified
  22              		.thumb
  23              		.thumb_func
  24              		.fpu fpv5-sp-d16
  26              	tim9Init:
  27              	.LFB187:
  28              		.file 1 "Src/drv/drv_tim.c"
   1:Src/drv/drv_tim.c **** /** @file 		drv_tim.c
   2:Src/drv/drv_tim.c ****  *  @brief
   3:Src/drv/drv_tim.c ****  *  	This file enables use of a timer to ensure accurate timing of the PID loop.
   4:Src/drv/drv_tim.c ****  *
   5:Src/drv/drv_tim.c ****  *  @author 	Jeremy Wolfe
   6:Src/drv/drv_tim.c ****  *  @date 		07 MAR 2022
   7:Src/drv/drv_tim.c ****  */
   8:Src/drv/drv_tim.c **** 
   9:Src/drv/drv_tim.c **** /* Includes */
  10:Src/drv/drv_tim.c **** #include "board.h"
  11:Src/drv/drv_tim.c **** 
  12:Src/drv/drv_tim.c **** /** @brief Initializes the low level registers to set up timer 9.
  13:Src/drv/drv_tim.c ****  *
  14:Src/drv/drv_tim.c ****  *  @return Void.
  15:Src/drv/drv_tim.c ****  */
  16:Src/drv/drv_tim.c **** void tim9Init(void)
  17:Src/drv/drv_tim.c **** {
  29              		.loc 1 17 1 view -0
  30              		.cfi_startproc
  31              		@ args = 0, pretend = 0, frame = 0
  32              		@ frame_needed = 0, uses_anonymous_args = 0
  33              		@ link register save eliminated.
  18:Src/drv/drv_tim.c ****     RCC->APB2ENR |= RCC_APB2ENR_TIM9EN;
  34              		.loc 1 18 5 view .LVU1
  35              		.loc 1 18 18 is_stmt 0 view .LVU2
  36 0000 074A     		ldr	r2, .L2
  37 0002 536C     		ldr	r3, [r2, #68]
  38 0004 43F48033 		orr	r3, r3, #65536
  39 0008 5364     		str	r3, [r2, #68]
  19:Src/drv/drv_tim.c **** 
ARM GAS  /var/folders/9y/n02fl3g16gnf7ppy14xghdy80000gn/T//ccnyZKFK.s 			page 2


  20:Src/drv/drv_tim.c ****     TIM9->PSC = 108 - 1;
  40              		.loc 1 20 5 is_stmt 1 view .LVU3
  41              		.loc 1 20 15 is_stmt 0 view .LVU4
  42 000a 064B     		ldr	r3, .L2+4
  43 000c 6B22     		movs	r2, #107
  44 000e 9A62     		str	r2, [r3, #40]
  21:Src/drv/drv_tim.c ****     TIM9->ARR = 0xFFFF;
  45              		.loc 1 21 5 is_stmt 1 view .LVU5
  46              		.loc 1 21 15 is_stmt 0 view .LVU6
  47 0010 4FF6FF72 		movw	r2, #65535
  48 0014 DA62     		str	r2, [r3, #44]
  22:Src/drv/drv_tim.c ****     TIM9->CNT = 4000;
  49              		.loc 1 22 5 is_stmt 1 view .LVU7
  50              		.loc 1 22 15 is_stmt 0 view .LVU8
  51 0016 4FF47A62 		mov	r2, #4000
  52 001a 5A62     		str	r2, [r3, #36]
  23:Src/drv/drv_tim.c **** }
  53              		.loc 1 23 1 view .LVU9
  54 001c 7047     		bx	lr
  55              	.L3:
  56 001e 00BF     		.align	2
  57              	.L2:
  58 0020 00380240 		.word	1073887232
  59 0024 00400140 		.word	1073823744
  60              		.cfi_endproc
  61              	.LFE187:
  63              		.section	.text.tim9GetCnt,"ax",%progbits
  64              		.align	1
  65              		.global	tim9GetCnt
  66              		.syntax unified
  67              		.thumb
  68              		.thumb_func
  69              		.fpu fpv5-sp-d16
  71              	tim9GetCnt:
  72              	.LFB188:
  24:Src/drv/drv_tim.c **** 
  25:Src/drv/drv_tim.c **** /** @brief Gets the counter value.
  26:Src/drv/drv_tim.c ****  *
  27:Src/drv/drv_tim.c ****  *  @return Void.
  28:Src/drv/drv_tim.c ****  */
  29:Src/drv/drv_tim.c **** uint32_t
  30:Src/drv/drv_tim.c **** tim9GetCnt(void)
  31:Src/drv/drv_tim.c **** {
  73              		.loc 1 31 1 is_stmt 1 view -0
  74              		.cfi_startproc
  75              		@ args = 0, pretend = 0, frame = 0
  76              		@ frame_needed = 0, uses_anonymous_args = 0
  77              		@ link register save eliminated.
  32:Src/drv/drv_tim.c ****     return TIM9->CNT;
  78              		.loc 1 32 5 view .LVU11
  79              		.loc 1 32 16 is_stmt 0 view .LVU12
  80 0000 014B     		ldr	r3, .L5
  81 0002 586A     		ldr	r0, [r3, #36]
  33:Src/drv/drv_tim.c **** }
  82              		.loc 1 33 1 view .LVU13
  83 0004 7047     		bx	lr
  84              	.L6:
ARM GAS  /var/folders/9y/n02fl3g16gnf7ppy14xghdy80000gn/T//ccnyZKFK.s 			page 3


  85 0006 00BF     		.align	2
  86              	.L5:
  87 0008 00400140 		.word	1073823744
  88              		.cfi_endproc
  89              	.LFE188:
  91              		.section	.text.tim9ResetCnt,"ax",%progbits
  92              		.align	1
  93              		.global	tim9ResetCnt
  94              		.syntax unified
  95              		.thumb
  96              		.thumb_func
  97              		.fpu fpv5-sp-d16
  99              	tim9ResetCnt:
 100              	.LFB189:
  34:Src/drv/drv_tim.c **** 
  35:Src/drv/drv_tim.c **** /** @brief Resets the counter.
  36:Src/drv/drv_tim.c ****  *
  37:Src/drv/drv_tim.c ****  *  @return Void.
  38:Src/drv/drv_tim.c ****  */
  39:Src/drv/drv_tim.c **** void tim9ResetCnt(void)
  40:Src/drv/drv_tim.c **** {
 101              		.loc 1 40 1 is_stmt 1 view -0
 102              		.cfi_startproc
 103              		@ args = 0, pretend = 0, frame = 0
 104              		@ frame_needed = 0, uses_anonymous_args = 0
 105              		@ link register save eliminated.
  41:Src/drv/drv_tim.c ****     TIM9->CNT = 0;
 106              		.loc 1 41 5 view .LVU15
 107              		.loc 1 41 15 is_stmt 0 view .LVU16
 108 0000 014B     		ldr	r3, .L8
 109 0002 0022     		movs	r2, #0
 110 0004 5A62     		str	r2, [r3, #36]
  42:Src/drv/drv_tim.c **** }
 111              		.loc 1 42 1 view .LVU17
 112 0006 7047     		bx	lr
 113              	.L9:
 114              		.align	2
 115              	.L8:
 116 0008 00400140 		.word	1073823744
 117              		.cfi_endproc
 118              	.LFE189:
 120              		.section	.text.tim9Enable,"ax",%progbits
 121              		.align	1
 122              		.global	tim9Enable
 123              		.syntax unified
 124              		.thumb
 125              		.thumb_func
 126              		.fpu fpv5-sp-d16
 128              	tim9Enable:
 129              	.LFB190:
  43:Src/drv/drv_tim.c **** 
  44:Src/drv/drv_tim.c **** /** @brief Enables the timer.
  45:Src/drv/drv_tim.c ****  *
  46:Src/drv/drv_tim.c ****  *  @return Void.
  47:Src/drv/drv_tim.c ****  */
  48:Src/drv/drv_tim.c **** void tim9Enable(void)
  49:Src/drv/drv_tim.c **** {
ARM GAS  /var/folders/9y/n02fl3g16gnf7ppy14xghdy80000gn/T//ccnyZKFK.s 			page 4


 130              		.loc 1 49 1 is_stmt 1 view -0
 131              		.cfi_startproc
 132              		@ args = 0, pretend = 0, frame = 0
 133              		@ frame_needed = 0, uses_anonymous_args = 0
 134              		@ link register save eliminated.
  50:Src/drv/drv_tim.c ****     TIM9->CR1 |= TIM_CR1_CEN;
 135              		.loc 1 50 5 view .LVU19
 136              		.loc 1 50 15 is_stmt 0 view .LVU20
 137 0000 024A     		ldr	r2, .L11
 138 0002 1368     		ldr	r3, [r2]
 139 0004 43F00103 		orr	r3, r3, #1
 140 0008 1360     		str	r3, [r2]
  51:Src/drv/drv_tim.c **** }
 141              		.loc 1 51 1 view .LVU21
 142 000a 7047     		bx	lr
 143              	.L12:
 144              		.align	2
 145              	.L11:
 146 000c 00400140 		.word	1073823744
 147              		.cfi_endproc
 148              	.LFE190:
 150              		.section	.text.tim9Disable,"ax",%progbits
 151              		.align	1
 152              		.global	tim9Disable
 153              		.syntax unified
 154              		.thumb
 155              		.thumb_func
 156              		.fpu fpv5-sp-d16
 158              	tim9Disable:
 159              	.LFB191:
  52:Src/drv/drv_tim.c **** 
  53:Src/drv/drv_tim.c **** /** @brief Disables the timer.
  54:Src/drv/drv_tim.c ****  *
  55:Src/drv/drv_tim.c ****  *  @return Void.
  56:Src/drv/drv_tim.c ****  */
  57:Src/drv/drv_tim.c **** void tim9Disable(void)
  58:Src/drv/drv_tim.c **** {
 160              		.loc 1 58 1 is_stmt 1 view -0
 161              		.cfi_startproc
 162              		@ args = 0, pretend = 0, frame = 0
 163              		@ frame_needed = 0, uses_anonymous_args = 0
 164              		@ link register save eliminated.
  59:Src/drv/drv_tim.c ****     TIM9->CR1 &= ~TIM_CR1_CEN;
 165              		.loc 1 59 5 view .LVU23
 166              		.loc 1 59 15 is_stmt 0 view .LVU24
 167 0000 024A     		ldr	r2, .L14
 168 0002 1368     		ldr	r3, [r2]
 169 0004 23F00103 		bic	r3, r3, #1
 170 0008 1360     		str	r3, [r2]
  60:Src/drv/drv_tim.c **** }
 171              		.loc 1 60 1 view .LVU25
 172 000a 7047     		bx	lr
 173              	.L15:
 174              		.align	2
 175              	.L14:
 176 000c 00400140 		.word	1073823744
 177              		.cfi_endproc
ARM GAS  /var/folders/9y/n02fl3g16gnf7ppy14xghdy80000gn/T//ccnyZKFK.s 			page 5


 178              	.LFE191:
 180              		.section	.text.getTimerValue,"ax",%progbits
 181              		.align	1
 182              		.global	getTimerValue
 183              		.syntax unified
 184              		.thumb
 185              		.thumb_func
 186              		.fpu fpv5-sp-d16
 188              	getTimerValue:
 189              	.LFB192:
  61:Src/drv/drv_tim.c **** 
  62:Src/drv/drv_tim.c **** uint16_t getTimerValue(void)
  63:Src/drv/drv_tim.c **** {
 190              		.loc 1 63 1 is_stmt 1 view -0
 191              		.cfi_startproc
 192              		@ args = 0, pretend = 0, frame = 0
 193              		@ frame_needed = 0, uses_anonymous_args = 0
 194 0000 10B5     		push	{r4, lr}
 195              		.cfi_def_cfa_offset 8
 196              		.cfi_offset 4, -8
 197              		.cfi_offset 14, -4
  64:Src/drv/drv_tim.c ****     uint16_t timerValue;
 198              		.loc 1 64 5 view .LVU27
  65:Src/drv/drv_tim.c ****     
  66:Src/drv/drv_tim.c ****     tim9Disable();
 199              		.loc 1 66 5 view .LVU28
 200 0002 FFF7FEFF 		bl	tim9Disable
 201              	.LVL0:
  67:Src/drv/drv_tim.c ****     timerValue = tim9GetCnt();
 202              		.loc 1 67 5 view .LVU29
 203              		.loc 1 67 18 is_stmt 0 view .LVU30
 204 0006 FFF7FEFF 		bl	tim9GetCnt
 205              	.LVL1:
 206              		.loc 1 67 16 view .LVU31
 207 000a 84B2     		uxth	r4, r0
 208              	.LVL2:
  68:Src/drv/drv_tim.c ****     tim9ResetCnt();
 209              		.loc 1 68 5 is_stmt 1 view .LVU32
 210 000c FFF7FEFF 		bl	tim9ResetCnt
 211              	.LVL3:
  69:Src/drv/drv_tim.c ****     tim9Enable();
 212              		.loc 1 69 5 view .LVU33
 213 0010 FFF7FEFF 		bl	tim9Enable
 214              	.LVL4:
  70:Src/drv/drv_tim.c **** 
  71:Src/drv/drv_tim.c ****     return timerValue;
 215              		.loc 1 71 5 view .LVU34
  72:Src/drv/drv_tim.c **** }...
 216              		.loc 1 72 1 is_stmt 0 view .LVU35
 217 0014 2046     		mov	r0, r4
 218 0016 10BD     		pop	{r4, pc}
 219              		.loc 1 72 1 view .LVU36
 220              		.cfi_endproc
 221              	.LFE192:
 223              		.text
 224              	.Letext0:
 225              		.file 2 "/opt/homebrew/Cellar/arm-none-eabi-gcc/10.3-2021.07/gcc/arm-none-eabi/include/machine/_de
ARM GAS  /var/folders/9y/n02fl3g16gnf7ppy14xghdy80000gn/T//ccnyZKFK.s 			page 6


 226              		.file 3 "/opt/homebrew/Cellar/arm-none-eabi-gcc/10.3-2021.07/gcc/arm-none-eabi/include/sys/_stdint
 227              		.file 4 "Libraries/CMSIS/Device/ST/STM32F7xx/Include/stm32f722xx.h"
ARM GAS  /var/folders/9y/n02fl3g16gnf7ppy14xghdy80000gn/T//ccnyZKFK.s 			page 7

