ARM GAS  /var/folders/9y/n02fl3g16gnf7ppy14xghdy80000gn/T//cc5nKBGi.s 			page 1


   1              		.cpu cortex-m7
   2              		.eabi_attribute 27, 1
   3              		.eabi_attribute 28, 1
   4              		.eabi_attribute 20, 1
   5              		.eabi_attribute 21, 1
   6              		.eabi_attribute 23, 3
   7              		.eabi_attribute 24, 1
   8              		.eabi_attribute 25, 1
   9              		.eabi_attribute 26, 1
  10              		.eabi_attribute 30, 1
  11              		.eabi_attribute 34, 1
  12              		.eabi_attribute 18, 4
  13              		.file	"main.c"
  14              		.text
  15              	.Ltext0:
  16              		.cfi_sections	.debug_frame
  17              		.section	.text.main,"ax",%progbits
  18              		.align	1
  19              		.global	main
  20              		.arch armv7e-m
  21              		.syntax unified
  22              		.thumb
  23              		.thumb_func
  24              		.fpu fpv5-sp-d16
  26              	main:
  27              	.LFB187:
  28              		.file 1 "Src/main.c"
   1:Src/main.c    **** /** @file 		main.c
   2:Src/main.c    ****  *  @brief
   3:Src/main.c    ****  *  	This file runs all the other functions and carries out the scheduling of tasks.
   4:Src/main.c    ****  *
   5:Src/main.c    ****  *  @author 	Jeremy Wolfe
   6:Src/main.c    ****  *  @date 		23 FEB 2022
   7:Src/main.c    ****  */
   8:Src/main.c    **** 
   9:Src/main.c    **** /* Includes */
  10:Src/main.c    **** #include "board.h"
  11:Src/main.c    **** 
  12:Src/main.c    **** #ifndef SANDBOX
  13:Src/main.c    **** /* Global Variables */
  14:Src/main.c    **** const uint8_t __attribute__((__section__(".eeprom"), used)) eepromArray[131072];
  15:Src/main.c    **** 
  16:Src/main.c    **** eepromConfig_t eepromConfig;
  17:Src/main.c    **** 
  18:Src/main.c    **** uint8_t execUpCount = 0;
  19:Src/main.c    **** 
  20:Src/main.c    **** sensors_t sensors;
  21:Src/main.c    **** 
  22:Src/main.c    **** uint16_t timerValue;
  23:Src/main.c    **** 
  24:Src/main.c    **** void printData(void);
  25:Src/main.c    **** 
  26:Src/main.c    **** int main(void)
  27:Src/main.c    **** {
  29              		.loc 1 27 1 view -0
  30              		.cfi_startproc
  31              		@ Volatile: function does not return.
ARM GAS  /var/folders/9y/n02fl3g16gnf7ppy14xghdy80000gn/T//cc5nKBGi.s 			page 2


  32              		@ args = 0, pretend = 0, frame = 32
  33              		@ frame_needed = 0, uses_anonymous_args = 0
  34 0000 00B5     		push	{lr}
  35              		.cfi_def_cfa_offset 4
  36              		.cfi_offset 14, -4
  37 0002 89B0     		sub	sp, sp, #36
  38              		.cfi_def_cfa_offset 40
  28:Src/main.c    ****     uint32_t currentTime;
  39              		.loc 1 28 5 view .LVU1
  29:Src/main.c    **** 
  30:Src/main.c    ****     systemReady = false;
  40              		.loc 1 30 5 view .LVU2
  41              		.loc 1 30 17 is_stmt 0 view .LVU3
  42 0004 1F4C     		ldr	r4, .L4
  43 0006 0025     		movs	r5, #0
  44 0008 2570     		strb	r5, [r4]
  31:Src/main.c    **** 
  32:Src/main.c    ****     systemInit();
  45              		.loc 1 32 5 is_stmt 1 view .LVU4
  46 000a FFF7FEFF 		bl	systemInit
  47              	.LVL0:
  33:Src/main.c    **** 
  34:Src/main.c    ****     /* Add tasks */
  35:Src/main.c    ****     Tasks *loopHead[8] = {NULL};
  48              		.loc 1 35 5 view .LVU5
  49              		.loc 1 35 12 is_stmt 0 view .LVU6
  50 000e 2022     		movs	r2, #32
  51 0010 2946     		mov	r1, r5
  52 0012 6846     		mov	r0, sp
  53 0014 FFF7FEFF 		bl	memset
  54              	.LVL1:
  36:Src/main.c    **** 
  37:Src/main.c    ****     append(&loopHead[FRAME_1000HZ], readMPU6000);
  55              		.loc 1 37 5 is_stmt 1 view .LVU7
  56 0018 1B49     		ldr	r1, .L4+4
  57 001a 6846     		mov	r0, sp
  58 001c FFF7FEFF 		bl	append
  59              	.LVL2:
  38:Src/main.c    **** 
  39:Src/main.c    ****     append(&loopHead[FRAME_500HZ], computeRotations500Hz);
  60              		.loc 1 39 5 view .LVU8
  61 0020 1A49     		ldr	r1, .L4+8
  62 0022 01A8     		add	r0, sp, #4
  63 0024 FFF7FEFF 		bl	append
  64              	.LVL3:
  40:Src/main.c    ****     append(&loopHead[FRAME_500HZ], updateIMU);
  65              		.loc 1 40 5 view .LVU9
  66 0028 1949     		ldr	r1, .L4+12
  67 002a 01A8     		add	r0, sp, #4
  68 002c FFF7FEFF 		bl	append
  69              	.LVL4:
  41:Src/main.c    ****     append(&loopHead[FRAME_500HZ], updateAttitude);
  70              		.loc 1 41 5 view .LVU10
  71 0030 1849     		ldr	r1, .L4+16
  72 0032 01A8     		add	r0, sp, #4
  73 0034 FFF7FEFF 		bl	append
  74              	.LVL5:
ARM GAS  /var/folders/9y/n02fl3g16gnf7ppy14xghdy80000gn/T//cc5nKBGi.s 			page 3


  42:Src/main.c    ****     append(&loopHead[FRAME_500HZ], processCommands);
  75              		.loc 1 42 5 view .LVU11
  76 0038 1749     		ldr	r1, .L4+20
  77 003a 01A8     		add	r0, sp, #4
  78 003c FFF7FEFF 		bl	append
  79              	.LVL6:
  43:Src/main.c    ****     append(&loopHead[FRAME_500HZ], computeAxisCommands);
  80              		.loc 1 43 5 view .LVU12
  81 0040 1649     		ldr	r1, .L4+24
  82 0042 01A8     		add	r0, sp, #4
  83 0044 FFF7FEFF 		bl	append
  84              	.LVL7:
  44:Src/main.c    ****     append(&loopHead[FRAME_500HZ], mixTable);
  85              		.loc 1 44 5 view .LVU13
  86 0048 1549     		ldr	r1, .L4+28
  87 004a 01A8     		add	r0, sp, #4
  88 004c FFF7FEFF 		bl	append
  89              	.LVL8:
  45:Src/main.c    ****     append(&loopHead[FRAME_500HZ], dshotWrite);
  90              		.loc 1 45 5 view .LVU14
  91 0050 1449     		ldr	r1, .L4+32
  92 0052 01A8     		add	r0, sp, #4
  93 0054 FFF7FEFF 		bl	append
  94              	.LVL9:
  46:Src/main.c    **** 
  47:Src/main.c    ****     append(&loopHead[FRAME_200HZ], ibusProcess);
  95              		.loc 1 47 5 view .LVU15
  96 0058 1349     		ldr	r1, .L4+36
  97 005a 02A8     		add	r0, sp, #8
  98 005c FFF7FEFF 		bl	append
  99              	.LVL10:
  48:Src/main.c    **** 
  49:Src/main.c    ****     append(&loopHead[FRAME_100HZ], printLog);
 100              		.loc 1 49 5 view .LVU16
 101 0060 1249     		ldr	r1, .L4+40
 102 0062 03A8     		add	r0, sp, #12
 103 0064 FFF7FEFF 		bl	append
 104              	.LVL11:
  50:Src/main.c    **** 
  51:Src/main.c    ****     append(&loopHead[FRAME_5HZ], battMonRead);
 105              		.loc 1 51 5 view .LVU17
 106 0068 1149     		ldr	r1, .L4+44
 107 006a 06A8     		add	r0, sp, #24
 108 006c FFF7FEFF 		bl	append
 109              	.LVL12:
  52:Src/main.c    **** 
  53:Src/main.c    ****     append(&loopHead[FRAME_1HZ], ledsSet);
 110              		.loc 1 53 5 view .LVU18
 111 0070 1049     		ldr	r1, .L4+48
 112 0072 07A8     		add	r0, sp, #28
 113 0074 FFF7FEFF 		bl	append
 114              	.LVL13:
  54:Src/main.c    **** 
  55:Src/main.c    ****     systemReady = true;
 115              		.loc 1 55 5 view .LVU19
 116              		.loc 1 55 17 is_stmt 0 view .LVU20
 117 0078 0123     		movs	r3, #1
ARM GAS  /var/folders/9y/n02fl3g16gnf7ppy14xghdy80000gn/T//cc5nKBGi.s 			page 4


 118 007a 2370     		strb	r3, [r4]
 119              	.L2:
  56:Src/main.c    **** 
  57:Src/main.c    ****     while (1)
 120              		.loc 1 57 5 is_stmt 1 discriminator 1 view .LVU21
  58:Src/main.c    ****     {
  59:Src/main.c    ****         run(loopHead);
 121              		.loc 1 59 9 discriminator 1 view .LVU22
 122 007c 6846     		mov	r0, sp
 123 007e FFF7FEFF 		bl	run
 124              	.LVL14:
  57:Src/main.c    ****     {
 125              		.loc 1 57 11 discriminator 1 view .LVU23
 126 0082 FBE7     		b	.L2
 127              	.L5:
 128              		.align	2
 129              	.L4:
 130 0084 00000000 		.word	systemReady
 131 0088 00000000 		.word	readMPU6000
 132 008c 00000000 		.word	computeRotations500Hz
 133 0090 00000000 		.word	updateIMU
 134 0094 00000000 		.word	updateAttitude
 135 0098 00000000 		.word	processCommands
 136 009c 00000000 		.word	computeAxisCommands
 137 00a0 00000000 		.word	mixTable
 138 00a4 00000000 		.word	dshotWrite
 139 00a8 00000000 		.word	ibusProcess
 140 00ac 00000000 		.word	printLog
 141 00b0 00000000 		.word	battMonRead
 142 00b4 00000000 		.word	ledsSet
 143              		.cfi_endproc
 144              	.LFE187:
 146              		.section	.rodata.printData.str1.4,"aMS",%progbits,1
 147              		.align	2
 148              	.LC0:
 149 0000 25750A00 		.ascii	"%u\012\000"
 150              		.section	.text.printData,"ax",%progbits
 151              		.align	1
 152              		.global	printData
 153              		.syntax unified
 154              		.thumb
 155              		.thumb_func
 156              		.fpu fpv5-sp-d16
 158              	printData:
 159              	.LFB188:
  60:Src/main.c    ****         // if (frame_1000Hz)
  61:Src/main.c    ****         // {
  62:Src/main.c    ****         //     frame_1000Hz = false;
  63:Src/main.c    **** 
  64:Src/main.c    ****         //     currentTime = micros();
  65:Src/main.c    ****         //     deltaTime1000Hz = currentTime = previous1000HzTime;
  66:Src/main.c    ****         //     previous1000HzTime = currentTime;
  67:Src/main.c    **** 
  68:Src/main.c    ****         //     executionTime1000Hz = micros() - currentTime;
  69:Src/main.c    ****         // }
  70:Src/main.c    **** 
  71:Src/main.c    ****         // if (frame_500Hz)
ARM GAS  /var/folders/9y/n02fl3g16gnf7ppy14xghdy80000gn/T//cc5nKBGi.s 			page 5


  72:Src/main.c    ****         // {
  73:Src/main.c    **** 
  74:Src/main.c    ****         //     frame_500Hz = false;
  75:Src/main.c    **** 
  76:Src/main.c    ****         //     currentTime = micros();
  77:Src/main.c    ****         //     deltaTime500Hz = currentTime - previous500HzTime;
  78:Src/main.c    ****         //     previous500HzTime = currentTime;
  79:Src/main.c    **** 
  80:Src/main.c    ****         //     computeRotations500Hz();
  81:Src/main.c    ****         //     updateIMU();
  82:Src/main.c    ****         //     processCommands();
  83:Src/main.c    ****         //     computeAxisCommands();
  84:Src/main.c    ****         //     mixTable();
  85:Src/main.c    ****         //     dshotWrite();
  86:Src/main.c    **** 
  87:Src/main.c    ****         //     executionTime500Hz = micros() - currentTime;
  88:Src/main.c    ****         // }
  89:Src/main.c    **** 
  90:Src/main.c    ****         // if (frame_200Hz)
  91:Src/main.c    ****         // {
  92:Src/main.c    ****         //     frame_200Hz = false;
  93:Src/main.c    **** 
  94:Src/main.c    ****         //     currentTime = micros();
  95:Src/main.c    ****         //     deltaTime200Hz = currentTime - previous200HzTime;
  96:Src/main.c    ****         //     previous200HzTime = currentTime;
  97:Src/main.c    **** 
  98:Src/main.c    ****         //     ibusProcess();
  99:Src/main.c    **** 
 100:Src/main.c    ****         //     executionTime200Hz = micros() - currentTime;
 101:Src/main.c    ****         // }
 102:Src/main.c    **** 
 103:Src/main.c    ****         // if (frame_100Hz)
 104:Src/main.c    ****         // {
 105:Src/main.c    **** 
 106:Src/main.c    ****         //     frame_100Hz = false;
 107:Src/main.c    **** 
 108:Src/main.c    ****         //     currentTime = micros();
 109:Src/main.c    ****         //     deltaTime100Hz = currentTime - previous100HzTime;
 110:Src/main.c    ****         //     previous100HzTime = currentTime;
 111:Src/main.c    **** 
 112:Src/main.c    ****         //     if (armed == false)
 113:Src/main.c    ****         //     {
 114:Src/main.c    ****         //         printLog(PITCH);
 115:Src/main.c    ****         //     }
 116:Src/main.c    **** 
 117:Src/main.c    ****         //     executionTime100Hz = micros() - currentTime;
 118:Src/main.c    ****         // }
 119:Src/main.c    ****         
 120:Src/main.c    ****         // if (frame_50Hz)
 121:Src/main.c    ****         // {
 122:Src/main.c    **** 
 123:Src/main.c    ****         //     frame_50Hz = false;
 124:Src/main.c    **** 
 125:Src/main.c    ****         //     currentTime = micros();
 126:Src/main.c    ****         //     deltaTime50Hz = currentTime - previous50HzTime;
 127:Src/main.c    ****         //     previous50HzTime = currentTime;
 128:Src/main.c    **** 
ARM GAS  /var/folders/9y/n02fl3g16gnf7ppy14xghdy80000gn/T//cc5nKBGi.s 			page 6


 129:Src/main.c    ****         //     executionTime50Hz = micros() - currentTime;
 130:Src/main.c    ****         // }
 131:Src/main.c    **** 
 132:Src/main.c    ****         // if (frame_10Hz)
 133:Src/main.c    ****         // {
 134:Src/main.c    **** 
 135:Src/main.c    ****         //     frame_10Hz = false;
 136:Src/main.c    **** 
 137:Src/main.c    ****         //     currentTime = micros();
 138:Src/main.c    ****         //     deltaTime10Hz = currentTime - previous10HzTime;
 139:Src/main.c    ****         //     previous10HzTime = currentTime;
 140:Src/main.c    ****         //     executionTime10Hz = micros() - currentTime;
 141:Src/main.c    ****         // }
 142:Src/main.c    **** 
 143:Src/main.c    ****         // if (frame_5Hz)
 144:Src/main.c    ****         // {
 145:Src/main.c    ****         //     frame_5Hz = false;
 146:Src/main.c    **** 
 147:Src/main.c    ****         //     currentTime = micros();
 148:Src/main.c    ****         //     deltaTime5Hz = currentTime - previous5HzTime;
 149:Src/main.c    ****         //     previous5HzTime = currentTime;
 150:Src/main.c    **** 
 151:Src/main.c    ****         //     battMonRead();
 152:Src/main.c    ****         //     if (battEmpty)
 153:Src/main.c    ****         //         led4TOGGLE();
 154:Src/main.c    ****         //     else
 155:Src/main.c    ****         //         led4OFF();
 156:Src/main.c    **** 
 157:Src/main.c    ****         //     executionTime5Hz = micros() - currentTime;
 158:Src/main.c    ****         // }
 159:Src/main.c    **** 
 160:Src/main.c    ****         // if (frame_1Hz)
 161:Src/main.c    ****         // {
 162:Src/main.c    ****         //     frame_1Hz = false;
 163:Src/main.c    **** 
 164:Src/main.c    ****         //     currentTime = micros();
 165:Src/main.c    ****         //     deltaTime1Hz = currentTime - previous1HzTime;
 166:Src/main.c    ****         //     previous1HzTime = currentTime;
 167:Src/main.c    **** 
 168:Src/main.c    ****         //     if (armed) // 1 - Armed
 169:Src/main.c    ****         //         led1ON();
 170:Src/main.c    ****         //     else
 171:Src/main.c    ****         //         led1OFF();
 172:Src/main.c    ****         //     if (systemReady) // 2 - System Initialized
 173:Src/main.c    ****         //         led2ON();
 174:Src/main.c    ****         //     else
 175:Src/main.c    ****         //         led2OFF();
 176:Src/main.c    ****         //     if (rcActive) // 3 - Receiver Connected
 177:Src/main.c    ****         //         led3ON();
 178:Src/main.c    ****         //     else
 179:Src/main.c    ****         //         led3OFF();
 180:Src/main.c    ****         //     if (battLow) // 4 - Battery Low
 181:Src/main.c    ****         //         led4TOGGLE();
 182:Src/main.c    ****         //     else
 183:Src/main.c    ****         //         led4OFF();
 184:Src/main.c    ****         //     if (mode == FLIGHT) // 5(toggle) - Flight Mode
 185:Src/main.c    ****         //         led5TOGGLE();
ARM GAS  /var/folders/9y/n02fl3g16gnf7ppy14xghdy80000gn/T//cc5nKBGi.s 			page 7


 186:Src/main.c    ****         //     else if (mode == ROVER) // 5(on) - Rover Mode
 187:Src/main.c    ****         //         led5ON();
 188:Src/main.c    ****         //     else
 189:Src/main.c    ****         //         led5OFF();
 190:Src/main.c    **** 
 191:Src/main.c    ****         //     executionTime1Hz = micros() - currentTime;
 192:Src/main.c    ****         // }
 193:Src/main.c    ****     }
 194:Src/main.c    **** }
 195:Src/main.c    **** void printData(void)
 196:Src/main.c    **** {
 160              		.loc 1 196 1 view -0
 161              		.cfi_startproc
 162              		@ args = 0, pretend = 0, frame = 0
 163              		@ frame_needed = 0, uses_anonymous_args = 0
 164 0000 08B5     		push	{r3, lr}
 165              		.cfi_def_cfa_offset 8
 166              		.cfi_offset 3, -8
 167              		.cfi_offset 14, -4
 197:Src/main.c    ****     printf("%u\n", rawAccel[XAXIS]);
 168              		.loc 1 197 5 view .LVU25
 169 0002 034B     		ldr	r3, .L8
 170 0004 1988     		ldrh	r1, [r3]
 171 0006 0348     		ldr	r0, .L8+4
 172 0008 FFF7FEFF 		bl	printf
 173              	.LVL15:
 198:Src/main.c    **** }
 174              		.loc 1 198 1 is_stmt 0 view .LVU26
 175 000c 08BD     		pop	{r3, pc}
 176              	.L9:
 177 000e 00BF     		.align	2
 178              	.L8:
 179 0010 00000000 		.word	rawAccel
 180 0014 00000000 		.word	.LC0
 181              		.cfi_endproc
 182              	.LFE188:
 184              		.section	.text.Error_Handler,"ax",%progbits
 185              		.align	1
 186              		.global	Error_Handler
 187              		.syntax unified
 188              		.thumb
 189              		.thumb_func
 190              		.fpu fpv5-sp-d16
 192              	Error_Handler:
 193              	.LFB189:
 199:Src/main.c    **** 
 200:Src/main.c    **** #else
 201:Src/main.c    **** const uint8_t __attribute__((__section__(".eeprom"), used)) eepromArray[131072];
 202:Src/main.c    **** 
 203:Src/main.c    **** eepromConfig_t eepromConfig;
 204:Src/main.c    **** 
 205:Src/main.c    **** uint8_t execUpCount = 0;
 206:Src/main.c    **** 
 207:Src/main.c    **** sensors_t sensors;
 208:Src/main.c    **** 
 209:Src/main.c    **** uint16_t timerValue;
 210:Src/main.c    **** 
ARM GAS  /var/folders/9y/n02fl3g16gnf7ppy14xghdy80000gn/T//cc5nKBGi.s 			page 8


 211:Src/main.c    **** int main(void)
 212:Src/main.c    **** {
 213:Src/main.c    ****     systemInit();
 214:Src/main.c    ****     systemReady = true;
 215:Src/main.c    **** 
 216:Src/main.c    ****     while (1)
 217:Src/main.c    ****     {
 218:Src/main.c    ****         if (frame_1000Hz)
 219:Src/main.c    ****             frame_1000Hz = false;
 220:Src/main.c    ****         if (frame_500Hz)
 221:Src/main.c    ****         {
 222:Src/main.c    ****             frame_500Hz = false;
 223:Src/main.c    **** 
 224:Src/main.c    ****             computeRotations500Hz();
 225:Src/main.c    **** 
 226:Src/main.c    ****             updateIMU(sensors.gyro500Hz[ROLL], sensors.gyro500Hz[PITCH], sensors.gyro500Hz[YAW],
 227:Src/main.c    ****                       sensors.accel500Hz[XAXIS], sensors.accel500Hz[YAXIS], sensors.accel500Hz[ZAXI
 228:Src/main.c    ****             sensors.attitude500Hz[ROLL] = getRollRadians();
 229:Src/main.c    ****             sensors.attitude500Hz[PITCH] = getPitchRadians();
 230:Src/main.c    ****             sensors.attitude500Hz[YAW] = getYawRadians();
 231:Src/main.c    **** 
 232:Src/main.c    ****             sensors.attDeg500Hz[ROLL] = sensors.attitude500Hz[ROLL] * 57.29578f;
 233:Src/main.c    ****             sensors.attDeg500Hz[PITCH] = sensors.attitude500Hz[PITCH] * 57.29578f;
 234:Src/main.c    ****             sensors.attDeg500Hz[YAW] = sensors.attitude500Hz[YAW] * 57.29578f;
 235:Src/main.c    **** 
 236:Src/main.c    ****             printf("%f\n", sensors.attDeg500Hz[ROLL]);
 237:Src/main.c    ****         }
 238:Src/main.c    ****     }
 239:Src/main.c    **** }
 240:Src/main.c    **** 
 241:Src/main.c    **** #endif
 242:Src/main.c    **** 
 243:Src/main.c    **** /**
 244:Src/main.c    ****  * @brief  This function is executed in case of error occurrence.
 245:Src/main.c    ****  * @retval None
 246:Src/main.c    ****  */
 247:Src/main.c    **** void Error_Handler(void)
 248:Src/main.c    **** {
 194              		.loc 1 248 1 is_stmt 1 view -0
 195              		.cfi_startproc
 196              		@ Volatile: function does not return.
 197              		@ args = 0, pretend = 0, frame = 0
 198              		@ frame_needed = 0, uses_anonymous_args = 0
 199              		@ link register save eliminated.
 249:Src/main.c    ****     __disable_irq();
 200              		.loc 1 249 5 view .LVU28
 201              	.LBB4:
 202              	.LBI4:
 203              		.file 2 "Libraries/CMSIS/Include/../../../Libraries/CMSIS/Include/../../../Libraries/CMSIS/Include
   1:Libraries/CMSIS/Include/../../../Libraries/CMSIS/Include/../../../Libraries/CMSIS/Include/cmsis_gcc.h **** /**************************************************************************//**
   2:Libraries/CMSIS/Include/../../../Libraries/CMSIS/Include/../../../Libraries/CMSIS/Include/cmsis_gcc.h ****  * @file     cmsis_gcc.h
   3:Libraries/CMSIS/Include/../../../Libraries/CMSIS/Include/../../../Libraries/CMSIS/Include/cmsis_gcc.h ****  * @brief    CMSIS compiler GCC header file
   4:Libraries/CMSIS/Include/../../../Libraries/CMSIS/Include/../../../Libraries/CMSIS/Include/cmsis_gcc.h ****  * @version  V5.0.4
   5:Libraries/CMSIS/Include/../../../Libraries/CMSIS/Include/../../../Libraries/CMSIS/Include/cmsis_gcc.h ****  * @date     09. April 2018
   6:Libraries/CMSIS/Include/../../../Libraries/CMSIS/Include/../../../Libraries/CMSIS/Include/cmsis_gcc.h ****  ******************************************************************************/
   7:Libraries/CMSIS/Include/../../../Libraries/CMSIS/Include/../../../Libraries/CMSIS/Include/cmsis_gcc.h **** /*
   8:Libraries/CMSIS/Include/../../../Libraries/CMSIS/Include/../../../Libraries/CMSIS/Include/cmsis_gcc.h ****  * Copyright (c) 2009-2018 Arm Limited. All rights reserved.
ARM GAS  /var/folders/9y/n02fl3g16gnf7ppy14xghdy80000gn/T//cc5nKBGi.s 			page 9


   9:Libraries/CMSIS/Include/../../../Libraries/CMSIS/Include/../../../Libraries/CMSIS/Include/cmsis_gcc.h ****  *
  10:Libraries/CMSIS/Include/../../../Libraries/CMSIS/Include/../../../Libraries/CMSIS/Include/cmsis_gcc.h ****  * SPDX-License-Identifier: Apache-2.0
  11:Libraries/CMSIS/Include/../../../Libraries/CMSIS/Include/../../../Libraries/CMSIS/Include/cmsis_gcc.h ****  *
  12:Libraries/CMSIS/Include/../../../Libraries/CMSIS/Include/../../../Libraries/CMSIS/Include/cmsis_gcc.h ****  * Licensed under the Apache License, Version 2.0 (the License); you may
  13:Libraries/CMSIS/Include/../../../Libraries/CMSIS/Include/../../../Libraries/CMSIS/Include/cmsis_gcc.h ****  * not use this file except in compliance with the License.
  14:Libraries/CMSIS/Include/../../../Libraries/CMSIS/Include/../../../Libraries/CMSIS/Include/cmsis_gcc.h ****  * You may obtain a copy of the License at
  15:Libraries/CMSIS/Include/../../../Libraries/CMSIS/Include/../../../Libraries/CMSIS/Include/cmsis_gcc.h ****  *
  16:Libraries/CMSIS/Include/../../../Libraries/CMSIS/Include/../../../Libraries/CMSIS/Include/cmsis_gcc.h ****  * www.apache.org/licenses/LICENSE-2.0
  17:Libraries/CMSIS/Include/../../../Libraries/CMSIS/Include/../../../Libraries/CMSIS/Include/cmsis_gcc.h ****  *
  18:Libraries/CMSIS/Include/../../../Libraries/CMSIS/Include/../../../Libraries/CMSIS/Include/cmsis_gcc.h ****  * Unless required by applicable law or agreed to in writing, software
  19:Libraries/CMSIS/Include/../../../Libraries/CMSIS/Include/../../../Libraries/CMSIS/Include/cmsis_gcc.h ****  * distributed under the License is distributed on an AS IS BASIS, WITHOUT
  20:Libraries/CMSIS/Include/../../../Libraries/CMSIS/Include/../../../Libraries/CMSIS/Include/cmsis_gcc.h ****  * WARRANTIES OR CONDITIONS OF ANY KIND, either express or implied.
  21:Libraries/CMSIS/Include/../../../Libraries/CMSIS/Include/../../../Libraries/CMSIS/Include/cmsis_gcc.h ****  * See the License for the specific language governing permissions and
  22:Libraries/CMSIS/Include/../../../Libraries/CMSIS/Include/../../../Libraries/CMSIS/Include/cmsis_gcc.h ****  * limitations under the License.
  23:Libraries/CMSIS/Include/../../../Libraries/CMSIS/Include/../../../Libraries/CMSIS/Include/cmsis_gcc.h ****  */
  24:Libraries/CMSIS/Include/../../../Libraries/CMSIS/Include/../../../Libraries/CMSIS/Include/cmsis_gcc.h **** 
  25:Libraries/CMSIS/Include/../../../Libraries/CMSIS/Include/../../../Libraries/CMSIS/Include/cmsis_gcc.h **** #ifndef __CMSIS_GCC_H
  26:Libraries/CMSIS/Include/../../../Libraries/CMSIS/Include/../../../Libraries/CMSIS/Include/cmsis_gcc.h **** #define __CMSIS_GCC_H
  27:Libraries/CMSIS/Include/../../../Libraries/CMSIS/Include/../../../Libraries/CMSIS/Include/cmsis_gcc.h **** 
  28:Libraries/CMSIS/Include/../../../Libraries/CMSIS/Include/../../../Libraries/CMSIS/Include/cmsis_gcc.h **** /* ignore some GCC warnings */
  29:Libraries/CMSIS/Include/../../../Libraries/CMSIS/Include/../../../Libraries/CMSIS/Include/cmsis_gcc.h **** #pragma GCC diagnostic push
  30:Libraries/CMSIS/Include/../../../Libraries/CMSIS/Include/../../../Libraries/CMSIS/Include/cmsis_gcc.h **** #pragma GCC diagnostic ignored "-Wsign-conversion"
  31:Libraries/CMSIS/Include/../../../Libraries/CMSIS/Include/../../../Libraries/CMSIS/Include/cmsis_gcc.h **** #pragma GCC diagnostic ignored "-Wconversion"
  32:Libraries/CMSIS/Include/../../../Libraries/CMSIS/Include/../../../Libraries/CMSIS/Include/cmsis_gcc.h **** #pragma GCC diagnostic ignored "-Wunused-parameter"
  33:Libraries/CMSIS/Include/../../../Libraries/CMSIS/Include/../../../Libraries/CMSIS/Include/cmsis_gcc.h **** 
  34:Libraries/CMSIS/Include/../../../Libraries/CMSIS/Include/../../../Libraries/CMSIS/Include/cmsis_gcc.h **** /* Fallback for __has_builtin */
  35:Libraries/CMSIS/Include/../../../Libraries/CMSIS/Include/../../../Libraries/CMSIS/Include/cmsis_gcc.h **** #ifndef __has_builtin
  36:Libraries/CMSIS/Include/../../../Libraries/CMSIS/Include/../../../Libraries/CMSIS/Include/cmsis_gcc.h ****   #define __has_builtin(x) (0)
  37:Libraries/CMSIS/Include/../../../Libraries/CMSIS/Include/../../../Libraries/CMSIS/Include/cmsis_gcc.h **** #endif
  38:Libraries/CMSIS/Include/../../../Libraries/CMSIS/Include/../../../Libraries/CMSIS/Include/cmsis_gcc.h **** 
  39:Libraries/CMSIS/Include/../../../Libraries/CMSIS/Include/../../../Libraries/CMSIS/Include/cmsis_gcc.h **** /* CMSIS compiler specific defines */
  40:Libraries/CMSIS/Include/../../../Libraries/CMSIS/Include/../../../Libraries/CMSIS/Include/cmsis_gcc.h **** #ifndef   __ASM
  41:Libraries/CMSIS/Include/../../../Libraries/CMSIS/Include/../../../Libraries/CMSIS/Include/cmsis_gcc.h ****   #define __ASM                                  __asm
  42:Libraries/CMSIS/Include/../../../Libraries/CMSIS/Include/../../../Libraries/CMSIS/Include/cmsis_gcc.h **** #endif
  43:Libraries/CMSIS/Include/../../../Libraries/CMSIS/Include/../../../Libraries/CMSIS/Include/cmsis_gcc.h **** #ifndef   __INLINE
  44:Libraries/CMSIS/Include/../../../Libraries/CMSIS/Include/../../../Libraries/CMSIS/Include/cmsis_gcc.h ****   #define __INLINE                               inline
  45:Libraries/CMSIS/Include/../../../Libraries/CMSIS/Include/../../../Libraries/CMSIS/Include/cmsis_gcc.h **** #endif
  46:Libraries/CMSIS/Include/../../../Libraries/CMSIS/Include/../../../Libraries/CMSIS/Include/cmsis_gcc.h **** #ifndef   __STATIC_INLINE
  47:Libraries/CMSIS/Include/../../../Libraries/CMSIS/Include/../../../Libraries/CMSIS/Include/cmsis_gcc.h ****   #define __STATIC_INLINE                        static inline
  48:Libraries/CMSIS/Include/../../../Libraries/CMSIS/Include/../../../Libraries/CMSIS/Include/cmsis_gcc.h **** #endif
  49:Libraries/CMSIS/Include/../../../Libraries/CMSIS/Include/../../../Libraries/CMSIS/Include/cmsis_gcc.h **** #ifndef   __STATIC_FORCEINLINE                 
  50:Libraries/CMSIS/Include/../../../Libraries/CMSIS/Include/../../../Libraries/CMSIS/Include/cmsis_gcc.h ****   #define __STATIC_FORCEINLINE                   __attribute__((always_inline)) static inline
  51:Libraries/CMSIS/Include/../../../Libraries/CMSIS/Include/../../../Libraries/CMSIS/Include/cmsis_gcc.h **** #endif                                           
  52:Libraries/CMSIS/Include/../../../Libraries/CMSIS/Include/../../../Libraries/CMSIS/Include/cmsis_gcc.h **** #ifndef   __NO_RETURN
  53:Libraries/CMSIS/Include/../../../Libraries/CMSIS/Include/../../../Libraries/CMSIS/Include/cmsis_gcc.h ****   #define __NO_RETURN                            __attribute__((__noreturn__))
  54:Libraries/CMSIS/Include/../../../Libraries/CMSIS/Include/../../../Libraries/CMSIS/Include/cmsis_gcc.h **** #endif
  55:Libraries/CMSIS/Include/../../../Libraries/CMSIS/Include/../../../Libraries/CMSIS/Include/cmsis_gcc.h **** #ifndef   __USED
  56:Libraries/CMSIS/Include/../../../Libraries/CMSIS/Include/../../../Libraries/CMSIS/Include/cmsis_gcc.h ****   #define __USED                                 __attribute__((used))
  57:Libraries/CMSIS/Include/../../../Libraries/CMSIS/Include/../../../Libraries/CMSIS/Include/cmsis_gcc.h **** #endif
  58:Libraries/CMSIS/Include/../../../Libraries/CMSIS/Include/../../../Libraries/CMSIS/Include/cmsis_gcc.h **** #ifndef   __WEAK
  59:Libraries/CMSIS/Include/../../../Libraries/CMSIS/Include/../../../Libraries/CMSIS/Include/cmsis_gcc.h ****   #define __WEAK                                 __attribute__((weak))
  60:Libraries/CMSIS/Include/../../../Libraries/CMSIS/Include/../../../Libraries/CMSIS/Include/cmsis_gcc.h **** #endif
  61:Libraries/CMSIS/Include/../../../Libraries/CMSIS/Include/../../../Libraries/CMSIS/Include/cmsis_gcc.h **** #ifndef   __PACKED
  62:Libraries/CMSIS/Include/../../../Libraries/CMSIS/Include/../../../Libraries/CMSIS/Include/cmsis_gcc.h ****   #define __PACKED                               __attribute__((packed, aligned(1)))
  63:Libraries/CMSIS/Include/../../../Libraries/CMSIS/Include/../../../Libraries/CMSIS/Include/cmsis_gcc.h **** #endif
  64:Libraries/CMSIS/Include/../../../Libraries/CMSIS/Include/../../../Libraries/CMSIS/Include/cmsis_gcc.h **** #ifndef   __PACKED_STRUCT
  65:Libraries/CMSIS/Include/../../../Libraries/CMSIS/Include/../../../Libraries/CMSIS/Include/cmsis_gcc.h ****   #define __PACKED_STRUCT                        struct __attribute__((packed, aligned(1)))
ARM GAS  /var/folders/9y/n02fl3g16gnf7ppy14xghdy80000gn/T//cc5nKBGi.s 			page 10


  66:Libraries/CMSIS/Include/../../../Libraries/CMSIS/Include/../../../Libraries/CMSIS/Include/cmsis_gcc.h **** #endif
  67:Libraries/CMSIS/Include/../../../Libraries/CMSIS/Include/../../../Libraries/CMSIS/Include/cmsis_gcc.h **** #ifndef   __PACKED_UNION
  68:Libraries/CMSIS/Include/../../../Libraries/CMSIS/Include/../../../Libraries/CMSIS/Include/cmsis_gcc.h ****   #define __PACKED_UNION                         union __attribute__((packed, aligned(1)))
  69:Libraries/CMSIS/Include/../../../Libraries/CMSIS/Include/../../../Libraries/CMSIS/Include/cmsis_gcc.h **** #endif
  70:Libraries/CMSIS/Include/../../../Libraries/CMSIS/Include/../../../Libraries/CMSIS/Include/cmsis_gcc.h **** #ifndef   __UNALIGNED_UINT32        /* deprecated */
  71:Libraries/CMSIS/Include/../../../Libraries/CMSIS/Include/../../../Libraries/CMSIS/Include/cmsis_gcc.h ****   #pragma GCC diagnostic push
  72:Libraries/CMSIS/Include/../../../Libraries/CMSIS/Include/../../../Libraries/CMSIS/Include/cmsis_gcc.h ****   #pragma GCC diagnostic ignored "-Wpacked"
  73:Libraries/CMSIS/Include/../../../Libraries/CMSIS/Include/../../../Libraries/CMSIS/Include/cmsis_gcc.h ****   #pragma GCC diagnostic ignored "-Wattributes"
  74:Libraries/CMSIS/Include/../../../Libraries/CMSIS/Include/../../../Libraries/CMSIS/Include/cmsis_gcc.h ****   struct __attribute__((packed)) T_UINT32 { uint32_t v; };
  75:Libraries/CMSIS/Include/../../../Libraries/CMSIS/Include/../../../Libraries/CMSIS/Include/cmsis_gcc.h ****   #pragma GCC diagnostic pop
  76:Libraries/CMSIS/Include/../../../Libraries/CMSIS/Include/../../../Libraries/CMSIS/Include/cmsis_gcc.h ****   #define __UNALIGNED_UINT32(x)                  (((struct T_UINT32 *)(x))->v)
  77:Libraries/CMSIS/Include/../../../Libraries/CMSIS/Include/../../../Libraries/CMSIS/Include/cmsis_gcc.h **** #endif
  78:Libraries/CMSIS/Include/../../../Libraries/CMSIS/Include/../../../Libraries/CMSIS/Include/cmsis_gcc.h **** #ifndef   __UNALIGNED_UINT16_WRITE
  79:Libraries/CMSIS/Include/../../../Libraries/CMSIS/Include/../../../Libraries/CMSIS/Include/cmsis_gcc.h ****   #pragma GCC diagnostic push
  80:Libraries/CMSIS/Include/../../../Libraries/CMSIS/Include/../../../Libraries/CMSIS/Include/cmsis_gcc.h ****   #pragma GCC diagnostic ignored "-Wpacked"
  81:Libraries/CMSIS/Include/../../../Libraries/CMSIS/Include/../../../Libraries/CMSIS/Include/cmsis_gcc.h ****   #pragma GCC diagnostic ignored "-Wattributes"
  82:Libraries/CMSIS/Include/../../../Libraries/CMSIS/Include/../../../Libraries/CMSIS/Include/cmsis_gcc.h ****   __PACKED_STRUCT T_UINT16_WRITE { uint16_t v; };
  83:Libraries/CMSIS/Include/../../../Libraries/CMSIS/Include/../../../Libraries/CMSIS/Include/cmsis_gcc.h ****   #pragma GCC diagnostic pop
  84:Libraries/CMSIS/Include/../../../Libraries/CMSIS/Include/../../../Libraries/CMSIS/Include/cmsis_gcc.h ****   #define __UNALIGNED_UINT16_WRITE(addr, val)    (void)((((struct T_UINT16_WRITE *)(void *)(addr))-
  85:Libraries/CMSIS/Include/../../../Libraries/CMSIS/Include/../../../Libraries/CMSIS/Include/cmsis_gcc.h **** #endif
  86:Libraries/CMSIS/Include/../../../Libraries/CMSIS/Include/../../../Libraries/CMSIS/Include/cmsis_gcc.h **** #ifndef   __UNALIGNED_UINT16_READ
  87:Libraries/CMSIS/Include/../../../Libraries/CMSIS/Include/../../../Libraries/CMSIS/Include/cmsis_gcc.h ****   #pragma GCC diagnostic push
  88:Libraries/CMSIS/Include/../../../Libraries/CMSIS/Include/../../../Libraries/CMSIS/Include/cmsis_gcc.h ****   #pragma GCC diagnostic ignored "-Wpacked"
  89:Libraries/CMSIS/Include/../../../Libraries/CMSIS/Include/../../../Libraries/CMSIS/Include/cmsis_gcc.h ****   #pragma GCC diagnostic ignored "-Wattributes"
  90:Libraries/CMSIS/Include/../../../Libraries/CMSIS/Include/../../../Libraries/CMSIS/Include/cmsis_gcc.h ****   __PACKED_STRUCT T_UINT16_READ { uint16_t v; };
  91:Libraries/CMSIS/Include/../../../Libraries/CMSIS/Include/../../../Libraries/CMSIS/Include/cmsis_gcc.h ****   #pragma GCC diagnostic pop
  92:Libraries/CMSIS/Include/../../../Libraries/CMSIS/Include/../../../Libraries/CMSIS/Include/cmsis_gcc.h ****   #define __UNALIGNED_UINT16_READ(addr)          (((const struct T_UINT16_READ *)(const void *)(add
  93:Libraries/CMSIS/Include/../../../Libraries/CMSIS/Include/../../../Libraries/CMSIS/Include/cmsis_gcc.h **** #endif
  94:Libraries/CMSIS/Include/../../../Libraries/CMSIS/Include/../../../Libraries/CMSIS/Include/cmsis_gcc.h **** #ifndef   __UNALIGNED_UINT32_WRITE
  95:Libraries/CMSIS/Include/../../../Libraries/CMSIS/Include/../../../Libraries/CMSIS/Include/cmsis_gcc.h ****   #pragma GCC diagnostic push
  96:Libraries/CMSIS/Include/../../../Libraries/CMSIS/Include/../../../Libraries/CMSIS/Include/cmsis_gcc.h ****   #pragma GCC diagnostic ignored "-Wpacked"
  97:Libraries/CMSIS/Include/../../../Libraries/CMSIS/Include/../../../Libraries/CMSIS/Include/cmsis_gcc.h ****   #pragma GCC diagnostic ignored "-Wattributes"
  98:Libraries/CMSIS/Include/../../../Libraries/CMSIS/Include/../../../Libraries/CMSIS/Include/cmsis_gcc.h ****   __PACKED_STRUCT T_UINT32_WRITE { uint32_t v; };
  99:Libraries/CMSIS/Include/../../../Libraries/CMSIS/Include/../../../Libraries/CMSIS/Include/cmsis_gcc.h ****   #pragma GCC diagnostic pop
 100:Libraries/CMSIS/Include/../../../Libraries/CMSIS/Include/../../../Libraries/CMSIS/Include/cmsis_gcc.h ****   #define __UNALIGNED_UINT32_WRITE(addr, val)    (void)((((struct T_UINT32_WRITE *)(void *)(addr))-
 101:Libraries/CMSIS/Include/../../../Libraries/CMSIS/Include/../../../Libraries/CMSIS/Include/cmsis_gcc.h **** #endif
 102:Libraries/CMSIS/Include/../../../Libraries/CMSIS/Include/../../../Libraries/CMSIS/Include/cmsis_gcc.h **** #ifndef   __UNALIGNED_UINT32_READ
 103:Libraries/CMSIS/Include/../../../Libraries/CMSIS/Include/../../../Libraries/CMSIS/Include/cmsis_gcc.h ****   #pragma GCC diagnostic push
 104:Libraries/CMSIS/Include/../../../Libraries/CMSIS/Include/../../../Libraries/CMSIS/Include/cmsis_gcc.h ****   #pragma GCC diagnostic ignored "-Wpacked"
 105:Libraries/CMSIS/Include/../../../Libraries/CMSIS/Include/../../../Libraries/CMSIS/Include/cmsis_gcc.h ****   #pragma GCC diagnostic ignored "-Wattributes"
 106:Libraries/CMSIS/Include/../../../Libraries/CMSIS/Include/../../../Libraries/CMSIS/Include/cmsis_gcc.h ****   __PACKED_STRUCT T_UINT32_READ { uint32_t v; };
 107:Libraries/CMSIS/Include/../../../Libraries/CMSIS/Include/../../../Libraries/CMSIS/Include/cmsis_gcc.h ****   #pragma GCC diagnostic pop
 108:Libraries/CMSIS/Include/../../../Libraries/CMSIS/Include/../../../Libraries/CMSIS/Include/cmsis_gcc.h ****   #define __UNALIGNED_UINT32_READ(addr)          (((const struct T_UINT32_READ *)(const void *)(add
 109:Libraries/CMSIS/Include/../../../Libraries/CMSIS/Include/../../../Libraries/CMSIS/Include/cmsis_gcc.h **** #endif
 110:Libraries/CMSIS/Include/../../../Libraries/CMSIS/Include/../../../Libraries/CMSIS/Include/cmsis_gcc.h **** #ifndef   __ALIGNED
 111:Libraries/CMSIS/Include/../../../Libraries/CMSIS/Include/../../../Libraries/CMSIS/Include/cmsis_gcc.h ****   #define __ALIGNED(x)                           __attribute__((aligned(x)))
 112:Libraries/CMSIS/Include/../../../Libraries/CMSIS/Include/../../../Libraries/CMSIS/Include/cmsis_gcc.h **** #endif
 113:Libraries/CMSIS/Include/../../../Libraries/CMSIS/Include/../../../Libraries/CMSIS/Include/cmsis_gcc.h **** #ifndef   __RESTRICT
 114:Libraries/CMSIS/Include/../../../Libraries/CMSIS/Include/../../../Libraries/CMSIS/Include/cmsis_gcc.h ****   #define __RESTRICT                             __restrict
 115:Libraries/CMSIS/Include/../../../Libraries/CMSIS/Include/../../../Libraries/CMSIS/Include/cmsis_gcc.h **** #endif
 116:Libraries/CMSIS/Include/../../../Libraries/CMSIS/Include/../../../Libraries/CMSIS/Include/cmsis_gcc.h **** 
 117:Libraries/CMSIS/Include/../../../Libraries/CMSIS/Include/../../../Libraries/CMSIS/Include/cmsis_gcc.h **** 
 118:Libraries/CMSIS/Include/../../../Libraries/CMSIS/Include/../../../Libraries/CMSIS/Include/cmsis_gcc.h **** /* ###########################  Core Function Access  ########################### */
 119:Libraries/CMSIS/Include/../../../Libraries/CMSIS/Include/../../../Libraries/CMSIS/Include/cmsis_gcc.h **** /** \ingroup  CMSIS_Core_FunctionInterface
 120:Libraries/CMSIS/Include/../../../Libraries/CMSIS/Include/../../../Libraries/CMSIS/Include/cmsis_gcc.h ****     \defgroup CMSIS_Core_RegAccFunctions CMSIS Core Register Access Functions
 121:Libraries/CMSIS/Include/../../../Libraries/CMSIS/Include/../../../Libraries/CMSIS/Include/cmsis_gcc.h ****   @{
 122:Libraries/CMSIS/Include/../../../Libraries/CMSIS/Include/../../../Libraries/CMSIS/Include/cmsis_gcc.h ****  */
ARM GAS  /var/folders/9y/n02fl3g16gnf7ppy14xghdy80000gn/T//cc5nKBGi.s 			page 11


 123:Libraries/CMSIS/Include/../../../Libraries/CMSIS/Include/../../../Libraries/CMSIS/Include/cmsis_gcc.h **** 
 124:Libraries/CMSIS/Include/../../../Libraries/CMSIS/Include/../../../Libraries/CMSIS/Include/cmsis_gcc.h **** /**
 125:Libraries/CMSIS/Include/../../../Libraries/CMSIS/Include/../../../Libraries/CMSIS/Include/cmsis_gcc.h ****   \brief   Enable IRQ Interrupts
 126:Libraries/CMSIS/Include/../../../Libraries/CMSIS/Include/../../../Libraries/CMSIS/Include/cmsis_gcc.h ****   \details Enables IRQ interrupts by clearing the I-bit in the CPSR.
 127:Libraries/CMSIS/Include/../../../Libraries/CMSIS/Include/../../../Libraries/CMSIS/Include/cmsis_gcc.h ****            Can only be executed in Privileged modes.
 128:Libraries/CMSIS/Include/../../../Libraries/CMSIS/Include/../../../Libraries/CMSIS/Include/cmsis_gcc.h ****  */
 129:Libraries/CMSIS/Include/../../../Libraries/CMSIS/Include/../../../Libraries/CMSIS/Include/cmsis_gcc.h **** __STATIC_FORCEINLINE void __enable_irq(void)
 130:Libraries/CMSIS/Include/../../../Libraries/CMSIS/Include/../../../Libraries/CMSIS/Include/cmsis_gcc.h **** {
 131:Libraries/CMSIS/Include/../../../Libraries/CMSIS/Include/../../../Libraries/CMSIS/Include/cmsis_gcc.h ****   __ASM volatile ("cpsie i" : : : "memory");
 132:Libraries/CMSIS/Include/../../../Libraries/CMSIS/Include/../../../Libraries/CMSIS/Include/cmsis_gcc.h **** }
 133:Libraries/CMSIS/Include/../../../Libraries/CMSIS/Include/../../../Libraries/CMSIS/Include/cmsis_gcc.h **** 
 134:Libraries/CMSIS/Include/../../../Libraries/CMSIS/Include/../../../Libraries/CMSIS/Include/cmsis_gcc.h **** 
 135:Libraries/CMSIS/Include/../../../Libraries/CMSIS/Include/../../../Libraries/CMSIS/Include/cmsis_gcc.h **** /**
 136:Libraries/CMSIS/Include/../../../Libraries/CMSIS/Include/../../../Libraries/CMSIS/Include/cmsis_gcc.h ****   \brief   Disable IRQ Interrupts
 137:Libraries/CMSIS/Include/../../../Libraries/CMSIS/Include/../../../Libraries/CMSIS/Include/cmsis_gcc.h ****   \details Disables IRQ interrupts by setting the I-bit in the CPSR.
 138:Libraries/CMSIS/Include/../../../Libraries/CMSIS/Include/../../../Libraries/CMSIS/Include/cmsis_gcc.h ****            Can only be executed in Privileged modes.
 139:Libraries/CMSIS/Include/../../../Libraries/CMSIS/Include/../../../Libraries/CMSIS/Include/cmsis_gcc.h ****  */
 140:Libraries/CMSIS/Include/../../../Libraries/CMSIS/Include/../../../Libraries/CMSIS/Include/cmsis_gcc.h **** __STATIC_FORCEINLINE void __disable_irq(void)
 204              		.loc 2 140 27 view .LVU29
 205              	.LBB5:
 141:Libraries/CMSIS/Include/../../../Libraries/CMSIS/Include/../../../Libraries/CMSIS/Include/cmsis_gcc.h **** {
 142:Libraries/CMSIS/Include/../../../Libraries/CMSIS/Include/../../../Libraries/CMSIS/Include/cmsis_gcc.h ****   __ASM volatile ("cpsid i" : : : "memory");
 206              		.loc 2 142 3 view .LVU30
 207              		.syntax unified
 208              	@ 142 "Libraries/CMSIS/Include/../../../Libraries/CMSIS/Include/../../../Libraries/CMSIS/Include/cm
 209 0000 72B6     		cpsid i
 210              	@ 0 "" 2
 211              		.thumb
 212              		.syntax unified
 213              	.L11:
 214              	.LBE5:
 215              	.LBE4:
 250:Src/main.c    ****     while (1)
 216              		.loc 1 250 5 discriminator 1 view .LVU31
 251:Src/main.c    ****     {
 252:Src/main.c    ****     }
 217              		.loc 1 252 5 discriminator 1 view .LVU32
 250:Src/main.c    ****     while (1)
 218              		.loc 1 250 11 discriminator 1 view .LVU33
 219 0002 FEE7     		b	.L11
 220              		.cfi_endproc
 221              	.LFE189:
 223              		.global	timerValue
 224              		.global	sensors
 225              		.global	execUpCount
 226              		.global	eepromConfig
 227              		.global	eepromArray
 228              		.section	.bss.eepromConfig,"aw",%nobits
 229              		.align	3
 232              	eepromConfig:
 233 0000 00000000 		.space	312
 233      00000000 
 233      00000000 
 233      00000000 
 233      00000000 
 234              		.section	.bss.execUpCount,"aw",%nobits
 237              	execUpCount:
ARM GAS  /var/folders/9y/n02fl3g16gnf7ppy14xghdy80000gn/T//cc5nKBGi.s 			page 12


 238 0000 00       		.space	1
 239              		.section	.bss.sensors,"aw",%nobits
 240              		.align	2
 243              	sensors:
 244 0000 00000000 		.space	60
 244      00000000 
 244      00000000 
 244      00000000 
 244      00000000 
 245              		.section	.bss.timerValue,"aw",%nobits
 246              		.align	1
 249              	timerValue:
 250 0000 0000     		.space	2
 251              		.section	.eeprom,"a"
 252              		.align	2
 255              	eepromArray:
 256 0000 00000000 		.space	131072
 256      00000000 
 256      00000000 
 256      00000000 
 256      00000000 
 257              		.text
 258              	.Letext0:
 259              		.file 3 "/opt/homebrew/Cellar/arm-none-eabi-gcc/10.3-2021.07/gcc/arm-none-eabi/include/machine/_de
 260              		.file 4 "/opt/homebrew/Cellar/arm-none-eabi-gcc/10.3-2021.07/gcc/arm-none-eabi/include/sys/_stdint
 261              		.file 5 "Src/scheduler.h"
 262              		.file 6 "Src/pid.h"
 263              		.file 7 "Src/baredrones32.h"
 264              		.file 8 "Src/drv/drv_system.h"
 265              		.file 9 "Src/sensors/mpu6000.h"
 266              		.file 10 "/opt/homebrew/Cellar/arm-none-eabi-gcc/10.3-2021.07/gcc/arm-none-eabi/include/stdio.h"
 267              		.file 11 "<built-in>"
ARM GAS  /var/folders/9y/n02fl3g16gnf7ppy14xghdy80000gn/T//cc5nKBGi.s 			page 13

