ARM GAS  /var/folders/9y/n02fl3g16gnf7ppy14xghdy80000gn/T//ccmn5UH5.s 			page 1


   1              		.cpu cortex-m7
   2              		.eabi_attribute 27, 1
   3              		.eabi_attribute 28, 1
   4              		.eabi_attribute 20, 1
   5              		.eabi_attribute 21, 1
   6              		.eabi_attribute 23, 3
   7              		.eabi_attribute 24, 1
   8              		.eabi_attribute 25, 1
   9              		.eabi_attribute 26, 1
  10              		.eabi_attribute 30, 1
  11              		.eabi_attribute 34, 1
  12              		.eabi_attribute 18, 4
  13              		.file	"mixer.c"
  14              		.text
  15              	.Ltext0:
  16              		.cfi_sections	.debug_frame
  17              		.section	.text.pulseMotors,"ax",%progbits
  18              		.align	1
  19              		.global	pulseMotors
  20              		.arch armv7e-m
  21              		.syntax unified
  22              		.thumb
  23              		.thumb_func
  24              		.fpu fpv5-sp-d16
  26              	pulseMotors:
  27              	.LFB187:
  28              		.file 1 "Src/motion/mixer.c"
   1:Src/motion/mixer.c **** /** @file 		mixer.c
   2:Src/motion/mixer.c ****  *  @brief
   3:Src/motion/mixer.c ****  *  	This file takes the output of the PID controller and assigns values to the motors.
   4:Src/motion/mixer.c ****  *
   5:Src/motion/mixer.c ****  *  @author 	Jeremy Wolfe
   6:Src/motion/mixer.c ****  *  @date 		07 MAR 2022
   7:Src/motion/mixer.c ****  */
   8:Src/motion/mixer.c **** 
   9:Src/motion/mixer.c **** /* Includes */
  10:Src/motion/mixer.c **** #include "board.h"
  11:Src/motion/mixer.c **** 
  12:Src/motion/mixer.c **** /* Global Variables */
  13:Src/motion/mixer.c **** uint8_t numberMotor = 4;
  14:Src/motion/mixer.c **** uint16_t throttleCmd;
  15:Src/motion/mixer.c **** int16_t steerCmd, speedCmd;
  16:Src/motion/mixer.c **** int16_t motor_temp[4];
  17:Src/motion/mixer.c **** 
  18:Src/motion/mixer.c **** /** @brief Pulses the motors.
  19:Src/motion/mixer.c ****  *
  20:Src/motion/mixer.c ****  *  @return Void.
  21:Src/motion/mixer.c ****  */
  22:Src/motion/mixer.c **** void
  23:Src/motion/mixer.c **** pulseMotors(void)
  24:Src/motion/mixer.c **** {
  29              		.loc 1 24 1 view -0
  30              		.cfi_startproc
  31              		@ args = 0, pretend = 0, frame = 0
  32              		@ frame_needed = 0, uses_anonymous_args = 0
  33 0000 08B5     		push	{r3, lr}
  34              		.cfi_def_cfa_offset 8
ARM GAS  /var/folders/9y/n02fl3g16gnf7ppy14xghdy80000gn/T//ccmn5UH5.s 			page 2


  35              		.cfi_offset 3, -8
  36              		.cfi_offset 14, -4
  25:Src/motion/mixer.c **** 	motor_value[0] = DSHOT_CMD_BEACON1;
  37              		.loc 1 25 2 view .LVU1
  38              		.loc 1 25 17 is_stmt 0 view .LVU2
  39 0002 054B     		ldr	r3, .L3
  40 0004 0122     		movs	r2, #1
  41 0006 1A80     		strh	r2, [r3]	@ movhi
  26:Src/motion/mixer.c **** 	motor_value[1] = DSHOT_CMD_BEACON1;
  42              		.loc 1 26 2 is_stmt 1 view .LVU3
  43              		.loc 1 26 17 is_stmt 0 view .LVU4
  44 0008 5A80     		strh	r2, [r3, #2]	@ movhi
  27:Src/motion/mixer.c **** 	motor_value[2] = DSHOT_CMD_BEACON1;
  45              		.loc 1 27 2 is_stmt 1 view .LVU5
  46              		.loc 1 27 17 is_stmt 0 view .LVU6
  47 000a 9A80     		strh	r2, [r3, #4]	@ movhi
  28:Src/motion/mixer.c **** 	motor_value[3] = DSHOT_CMD_BEACON1;
  48              		.loc 1 28 2 is_stmt 1 view .LVU7
  49              		.loc 1 28 17 is_stmt 0 view .LVU8
  50 000c DA80     		strh	r2, [r3, #6]	@ movhi
  29:Src/motion/mixer.c **** 	delay(10);
  51              		.loc 1 29 2 is_stmt 1 view .LVU9
  52 000e 0A20     		movs	r0, #10
  53 0010 FFF7FEFF 		bl	delay
  54              	.LVL0:
  30:Src/motion/mixer.c **** }
  55              		.loc 1 30 1 is_stmt 0 view .LVU10
  56 0014 08BD     		pop	{r3, pc}
  57              	.L4:
  58 0016 00BF     		.align	2
  59              	.L3:
  60 0018 00000000 		.word	motor_value
  61              		.cfi_endproc
  62              	.LFE187:
  64              		.section	.text.mixTable,"ax",%progbits
  65              		.align	1
  66              		.global	mixTable
  67              		.syntax unified
  68              		.thumb
  69              		.thumb_func
  70              		.fpu fpv5-sp-d16
  72              	mixTable:
  73              	.LFB188:
  31:Src/motion/mixer.c **** 
  32:Src/motion/mixer.c **** /** @brief Mixes the values from the PID controller and assigns values to the motors.
  33:Src/motion/mixer.c ****  *
  34:Src/motion/mixer.c ****  *  @return Void.
  35:Src/motion/mixer.c ****  */
  36:Src/motion/mixer.c **** void
  37:Src/motion/mixer.c **** mixTable(void)
  38:Src/motion/mixer.c **** {
  74              		.loc 1 38 1 is_stmt 1 view -0
  75              		.cfi_startproc
  76              		@ args = 0, pretend = 0, frame = 0
  77              		@ frame_needed = 0, uses_anonymous_args = 0
  78 0000 38B5     		push	{r3, r4, r5, lr}
  79              		.cfi_def_cfa_offset 16
ARM GAS  /var/folders/9y/n02fl3g16gnf7ppy14xghdy80000gn/T//ccmn5UH5.s 			page 3


  80              		.cfi_offset 3, -16
  81              		.cfi_offset 4, -12
  82              		.cfi_offset 5, -8
  83              		.cfi_offset 14, -4
  84 0002 2DED028B 		vpush.64	{d8}
  85              		.cfi_def_cfa_offset 24
  86              		.cfi_offset 80, -24
  87              		.cfi_offset 81, -20
  39:Src/motion/mixer.c **** 	uint8_t i;
  88              		.loc 1 39 2 view .LVU12
  40:Src/motion/mixer.c **** 
  41:Src/motion/mixer.c **** 	if(armed == true)
  89              		.loc 1 41 2 view .LVU13
  90              		.loc 1 41 11 is_stmt 0 view .LVU14
  91 0006 534B     		ldr	r3, .L15
  92 0008 1B78     		ldrb	r3, [r3]	@ zero_extendqisi2
  93 000a DBB2     		uxtb	r3, r3
  94              		.loc 1 41 4 view .LVU15
  95 000c 012B     		cmp	r3, #1
  96 000e 08D0     		beq	.L14
  42:Src/motion/mixer.c **** 	{
  43:Src/motion/mixer.c **** 		motor_temp[0] = PIDMIXFLIGHT( -1.0f,  1.0f, -1.0f, 1.0f );      // Rear Right  CW
  44:Src/motion/mixer.c **** 		motor_temp[1] = PIDMIXFLIGHT( -1.0f, -1.0f,  1.0f, 1.0f );      // Front Right CCW
  45:Src/motion/mixer.c **** 		motor_temp[2] = PIDMIXFLIGHT(  1.0f,  1.0f,  1.0f, 1.0f );      // Rear Left   CCW
  46:Src/motion/mixer.c **** 		motor_temp[3] = PIDMIXFLIGHT(  1.0f, -1.0f, -1.0f, 1.0f );      // Front Left  CW
  47:Src/motion/mixer.c **** 
  48:Src/motion/mixer.c **** 		float maxDeltaThrottle;
  49:Src/motion/mixer.c **** 		float minDeltaThrottle;
  50:Src/motion/mixer.c **** 		float deltaThrottle;
  51:Src/motion/mixer.c **** 
  52:Src/motion/mixer.c **** 		maxDeltaThrottle = MAXCOMMAND - rxCommands[THROTTLE];
  53:Src/motion/mixer.c **** 		minDeltaThrottle = rxCommands[THROTTLE] - eepromConfig.minThrottle;
  54:Src/motion/mixer.c **** 		deltaThrottle    = (minDeltaThrottle < maxDeltaThrottle) ? minDeltaThrottle : maxDeltaThrottle;
  55:Src/motion/mixer.c **** 
  56:Src/motion/mixer.c **** 		for (i = 0; i < numberMotor; i++)
  57:Src/motion/mixer.c **** 		{
  58:Src/motion/mixer.c **** 			motor_temp[i] = constrain(motor_temp[i], rxCommands[THROTTLE] - deltaThrottle, rxCommands[THROTT
  59:Src/motion/mixer.c **** 
  60:Src/motion/mixer.c **** 			motor_temp[i] = ((motor_temp[i] * THROTTLE_DEADBAND_SLOPE) + THROTTLE_DEADBAND) / 2 + 47;
  61:Src/motion/mixer.c **** 			motor_value[i] = constrain16(motor_temp[i], 1237, 2047);
  62:Src/motion/mixer.c **** 		}
  63:Src/motion/mixer.c **** 	}
  64:Src/motion/mixer.c **** 	else
  65:Src/motion/mixer.c **** 	{
  66:Src/motion/mixer.c **** 		motor_value[MOTOR1] = 0;
  97              		.loc 1 66 3 is_stmt 1 view .LVU16
  98              		.loc 1 66 23 is_stmt 0 view .LVU17
  99 0010 514B     		ldr	r3, .L15+4
 100 0012 0022     		movs	r2, #0
 101 0014 1A80     		strh	r2, [r3]	@ movhi
  67:Src/motion/mixer.c **** 		motor_value[MOTOR2] = 0;
 102              		.loc 1 67 3 is_stmt 1 view .LVU18
 103              		.loc 1 67 23 is_stmt 0 view .LVU19
 104 0016 5A80     		strh	r2, [r3, #2]	@ movhi
  68:Src/motion/mixer.c **** 		motor_value[MOTOR3] = 0;
 105              		.loc 1 68 3 is_stmt 1 view .LVU20
 106              		.loc 1 68 23 is_stmt 0 view .LVU21
ARM GAS  /var/folders/9y/n02fl3g16gnf7ppy14xghdy80000gn/T//ccmn5UH5.s 			page 4


 107 0018 9A80     		strh	r2, [r3, #4]	@ movhi
  69:Src/motion/mixer.c **** 		motor_value[MOTOR4] = 0;
 108              		.loc 1 69 3 is_stmt 1 view .LVU22
 109              		.loc 1 69 23 is_stmt 0 view .LVU23
 110 001a DA80     		strh	r2, [r3, #6]	@ movhi
 111              	.L5:
  70:Src/motion/mixer.c **** 	}
  71:Src/motion/mixer.c **** }
 112              		.loc 1 71 1 view .LVU24
 113 001c BDEC028B 		vldm	sp!, {d8}
 114              		.cfi_remember_state
 115              		.cfi_restore 80
 116              		.cfi_restore 81
 117              		.cfi_def_cfa_offset 16
 118 0020 38BD     		pop	{r3, r4, r5, pc}
 119              	.L14:
 120              		.cfi_restore_state
 121              	.LBB2:
  43:Src/motion/mixer.c **** 		motor_temp[1] = PIDMIXFLIGHT( -1.0f, -1.0f,  1.0f, 1.0f );      // Front Right CCW
 122              		.loc 1 43 3 is_stmt 1 view .LVU25
  43:Src/motion/mixer.c **** 		motor_temp[1] = PIDMIXFLIGHT( -1.0f, -1.0f,  1.0f, 1.0f );      // Front Right CCW
 123              		.loc 1 43 19 is_stmt 0 view .LVU26
 124 0022 4E4B     		ldr	r3, .L15+8
 125 0024 D3ED015A 		vldr.32	s11, [r3, #4]
 126 0028 D3ED006A 		vldr.32	s13, [r3]
 127 002c 35EEE67A 		vsub.f32	s14, s11, s13
 128 0030 4B4A     		ldr	r2, .L15+12
 129 0032 92ED4D6A 		vldr.32	s12, [r2, #308]
 130 0036 D3ED027A 		vldr.32	s15, [r3, #8]
 131 003a 26EE276A 		vmul.f32	s12, s12, s15
 132 003e 37EE467A 		vsub.f32	s14, s14, s12
 133 0042 484B     		ldr	r3, .L15+16
 134 0044 1B88     		ldrh	r3, [r3]
 135 0046 07EE903A 		vmov	s15, r3	@ int
 136 004a F8EEE77A 		vcvt.f32.s32	s15, s15
 137 004e 37EE277A 		vadd.f32	s14, s14, s15
  43:Src/motion/mixer.c **** 		motor_temp[1] = PIDMIXFLIGHT( -1.0f, -1.0f,  1.0f, 1.0f );      // Front Right CCW
 138              		.loc 1 43 17 view .LVU27
 139 0052 454B     		ldr	r3, .L15+20
 140 0054 BDEEC77A 		vcvt.s32.f32	s14, s14
 141 0058 17EE101A 		vmov	r1, s14	@ int
 142 005c 1980     		strh	r1, [r3]	@ movhi
  44:Src/motion/mixer.c **** 		motor_temp[2] = PIDMIXFLIGHT(  1.0f,  1.0f,  1.0f, 1.0f );      // Rear Left   CCW
 143              		.loc 1 44 3 is_stmt 1 view .LVU28
  44:Src/motion/mixer.c **** 		motor_temp[2] = PIDMIXFLIGHT(  1.0f,  1.0f,  1.0f, 1.0f );      // Rear Left   CCW
 144              		.loc 1 44 19 is_stmt 0 view .LVU29
 145 005e B1EE667A 		vneg.f32	s14, s13
 146 0062 37EE657A 		vsub.f32	s14, s14, s11
 147 0066 36EE077A 		vadd.f32	s14, s12, s14
 148 006a 37EE877A 		vadd.f32	s14, s15, s14
  44:Src/motion/mixer.c **** 		motor_temp[2] = PIDMIXFLIGHT(  1.0f,  1.0f,  1.0f, 1.0f );      // Rear Left   CCW
 149              		.loc 1 44 17 view .LVU30
 150 006e BDEEC77A 		vcvt.s32.f32	s14, s14
 151 0072 17EE101A 		vmov	r1, s14	@ int
 152 0076 5980     		strh	r1, [r3, #2]	@ movhi
  45:Src/motion/mixer.c **** 		motor_temp[3] = PIDMIXFLIGHT(  1.0f, -1.0f, -1.0f, 1.0f );      // Front Left  CW
 153              		.loc 1 45 3 is_stmt 1 view .LVU31
ARM GAS  /var/folders/9y/n02fl3g16gnf7ppy14xghdy80000gn/T//ccmn5UH5.s 			page 5


  45:Src/motion/mixer.c **** 		motor_temp[3] = PIDMIXFLIGHT(  1.0f, -1.0f, -1.0f, 1.0f );      // Front Left  CW
 154              		.loc 1 45 19 is_stmt 0 view .LVU32
 155 0078 35EEA67A 		vadd.f32	s14, s11, s13
 156 007c 36EE077A 		vadd.f32	s14, s12, s14
 157 0080 37EE877A 		vadd.f32	s14, s15, s14
  45:Src/motion/mixer.c **** 		motor_temp[3] = PIDMIXFLIGHT(  1.0f, -1.0f, -1.0f, 1.0f );      // Front Left  CW
 158              		.loc 1 45 17 view .LVU33
 159 0084 BDEEC77A 		vcvt.s32.f32	s14, s14
 160 0088 17EE101A 		vmov	r1, s14	@ int
 161 008c 9980     		strh	r1, [r3, #4]	@ movhi
  46:Src/motion/mixer.c **** 
 162              		.loc 1 46 3 is_stmt 1 view .LVU34
  46:Src/motion/mixer.c **** 
 163              		.loc 1 46 19 is_stmt 0 view .LVU35
 164 008e 76EEE56A 		vsub.f32	s13, s13, s11
 165 0092 76EEC66A 		vsub.f32	s13, s13, s12
 166 0096 77EEA67A 		vadd.f32	s15, s15, s13
  46:Src/motion/mixer.c **** 
 167              		.loc 1 46 17 view .LVU36
 168 009a FDEEE77A 		vcvt.s32.f32	s15, s15
 169 009e 17EE901A 		vmov	r1, s15	@ int
 170 00a2 D980     		strh	r1, [r3, #6]	@ movhi
  48:Src/motion/mixer.c **** 		float minDeltaThrottle;
 171              		.loc 1 48 3 is_stmt 1 view .LVU37
  49:Src/motion/mixer.c **** 		float deltaThrottle;
 172              		.loc 1 49 3 view .LVU38
  50:Src/motion/mixer.c **** 
 173              		.loc 1 50 3 view .LVU39
  52:Src/motion/mixer.c **** 		minDeltaThrottle = rxCommands[THROTTLE] - eepromConfig.minThrottle;
 174              		.loc 1 52 3 view .LVU40
  52:Src/motion/mixer.c **** 		minDeltaThrottle = rxCommands[THROTTLE] - eepromConfig.minThrottle;
 175              		.loc 1 52 45 is_stmt 0 view .LVU41
 176 00a4 314B     		ldr	r3, .L15+24
 177 00a6 D3ED037A 		vldr.32	s15, [r3, #12]
  52:Src/motion/mixer.c **** 		minDeltaThrottle = rxCommands[THROTTLE] - eepromConfig.minThrottle;
 178              		.loc 1 52 20 view .LVU42
 179 00aa 9FED318A 		vldr.32	s16, .L15+28
 180 00ae 38EE678A 		vsub.f32	s16, s16, s15
 181              	.LVL1:
  53:Src/motion/mixer.c **** 		deltaThrottle    = (minDeltaThrottle < maxDeltaThrottle) ? minDeltaThrottle : maxDeltaThrottle;
 182              		.loc 1 53 3 is_stmt 1 view .LVU43
  53:Src/motion/mixer.c **** 		deltaThrottle    = (minDeltaThrottle < maxDeltaThrottle) ? minDeltaThrottle : maxDeltaThrottle;
 183              		.loc 1 53 57 is_stmt 0 view .LVU44
 184 00b2 92ED207A 		vldr.32	s14, [r2, #128]
  53:Src/motion/mixer.c **** 		deltaThrottle    = (minDeltaThrottle < maxDeltaThrottle) ? minDeltaThrottle : maxDeltaThrottle;
 185              		.loc 1 53 20 view .LVU45
 186 00b6 77EEC77A 		vsub.f32	s15, s15, s14
 187              	.LVL2:
  54:Src/motion/mixer.c **** 
 188              		.loc 1 54 3 is_stmt 1 view .LVU46
  54:Src/motion/mixer.c **** 
 189              		.loc 1 54 79 is_stmt 0 view .LVU47
 190 00ba B4EEE78A 		vcmpe.f32	s16, s15
 191 00be F1EE10FA 		vmrs	APSR_nzcv, FPSCR
 192 00c2 01DD     		ble	.L7
 193 00c4 B0EE678A 		vmov.f32	s16, s15
 194              	.LVL3:
ARM GAS  /var/folders/9y/n02fl3g16gnf7ppy14xghdy80000gn/T//ccmn5UH5.s 			page 6


 195              	.L7:
  56:Src/motion/mixer.c **** 		{
 196              		.loc 1 56 3 is_stmt 1 discriminator 4 view .LVU48
  56:Src/motion/mixer.c **** 		{
 197              		.loc 1 56 10 is_stmt 0 discriminator 4 view .LVU49
 198 00c8 0024     		movs	r4, #0
  56:Src/motion/mixer.c **** 		{
 199              		.loc 1 56 3 discriminator 4 view .LVU50
 200 00ca 3DE0     		b	.L9
 201              	.LVL4:
 202              	.L10:
  58:Src/motion/mixer.c **** 
 203              		.loc 1 58 4 is_stmt 1 discriminator 3 view .LVU51
  58:Src/motion/mixer.c **** 
 204              		.loc 1 58 40 is_stmt 0 discriminator 3 view .LVU52
 205 00cc 264D     		ldr	r5, .L15+20
 206 00ce 35F91430 		ldrsh	r3, [r5, r4, lsl #1]
 207 00d2 00EE103A 		vmov	s0, r3	@ int
  58:Src/motion/mixer.c **** 
 208              		.loc 1 58 55 discriminator 3 view .LVU53
 209 00d6 254B     		ldr	r3, .L15+24
 210 00d8 D3ED030A 		vldr.32	s1, [r3, #12]
  58:Src/motion/mixer.c **** 
 211              		.loc 1 58 20 discriminator 3 view .LVU54
 212 00dc 30EE881A 		vadd.f32	s2, s1, s16
 213 00e0 70EEC80A 		vsub.f32	s1, s1, s16
 214 00e4 B8EEC00A 		vcvt.f32.s32	s0, s0
 215 00e8 FFF7FEFF 		bl	constrain
 216              	.LVL5:
  58:Src/motion/mixer.c **** 
 217              		.loc 1 58 18 discriminator 3 view .LVU55
 218 00ec BDEEC00A 		vcvt.s32.f32	s0, s0
 219 00f0 10EE103A 		vmov	r3, s0	@ int
 220 00f4 1BB2     		sxth	r3, r3
 221 00f6 25F81430 		strh	r3, [r5, r4, lsl #1]	@ movhi
  60:Src/motion/mixer.c **** 			motor_value[i] = constrain16(motor_temp[i], 1237, 2047);
 222              		.loc 1 60 4 is_stmt 1 discriminator 3 view .LVU56
  60:Src/motion/mixer.c **** 			motor_value[i] = constrain16(motor_temp[i], 1237, 2047);
 223              		.loc 1 60 36 is_stmt 0 discriminator 3 view .LVU57
 224 00fa 07EE903A 		vmov	s15, r3	@ int
 225 00fe F8EEE77A 		vcvt.f32.s32	s15, s15
 226 0102 9FED1C7A 		vldr.32	s14, .L15+32
 227 0106 67EE877A 		vmul.f32	s15, s15, s14
  60:Src/motion/mixer.c **** 			motor_value[i] = constrain16(motor_temp[i], 1237, 2047);
 228              		.loc 1 60 63 discriminator 3 view .LVU58
 229 010a 9FED1B7A 		vldr.32	s14, .L15+36
 230 010e 77EE877A 		vadd.f32	s15, s15, s14
  60:Src/motion/mixer.c **** 			motor_value[i] = constrain16(motor_temp[i], 1237, 2047);
 231              		.loc 1 60 84 discriminator 3 view .LVU59
 232 0112 B6EE007A 		vmov.f32	s14, #5.0e-1
 233 0116 67EE877A 		vmul.f32	s15, s15, s14
  60:Src/motion/mixer.c **** 			motor_value[i] = constrain16(motor_temp[i], 1237, 2047);
 234              		.loc 1 60 88 discriminator 3 view .LVU60
 235 011a 9FED187A 		vldr.32	s14, .L15+40
 236 011e 77EE877A 		vadd.f32	s15, s15, s14
  60:Src/motion/mixer.c **** 			motor_value[i] = constrain16(motor_temp[i], 1237, 2047);
 237              		.loc 1 60 18 discriminator 3 view .LVU61
ARM GAS  /var/folders/9y/n02fl3g16gnf7ppy14xghdy80000gn/T//ccmn5UH5.s 			page 7


 238 0122 FDEEE77A 		vcvt.s32.f32	s15, s15
 239 0126 17EE903A 		vmov	r3, s15	@ int
 240 012a 18B2     		sxth	r0, r3
 241 012c 25F81400 		strh	r0, [r5, r4, lsl #1]	@ movhi
  61:Src/motion/mixer.c **** 		}
 242              		.loc 1 61 4 is_stmt 1 discriminator 3 view .LVU62
  61:Src/motion/mixer.c **** 		}
 243              		.loc 1 61 21 is_stmt 0 discriminator 3 view .LVU63
 244 0130 40F2FF72 		movw	r2, #2047
 245 0134 40F2D541 		movw	r1, #1237
 246 0138 80B2     		uxth	r0, r0
 247 013a FFF7FEFF 		bl	constrain16
 248              	.LVL6:
  61:Src/motion/mixer.c **** 		}
 249              		.loc 1 61 19 discriminator 3 view .LVU64
 250 013e 064B     		ldr	r3, .L15+4
 251 0140 23F81400 		strh	r0, [r3, r4, lsl #1]	@ movhi
  56:Src/motion/mixer.c **** 		{
 252              		.loc 1 56 32 is_stmt 1 discriminator 3 view .LVU65
  56:Src/motion/mixer.c **** 		{
 253              		.loc 1 56 33 is_stmt 0 discriminator 3 view .LVU66
 254 0144 0134     		adds	r4, r4, #1
 255              	.LVL7:
  56:Src/motion/mixer.c **** 		{
 256              		.loc 1 56 33 discriminator 3 view .LVU67
 257 0146 E4B2     		uxtb	r4, r4
 258              	.LVL8:
 259              	.L9:
  56:Src/motion/mixer.c **** 		{
 260              		.loc 1 56 15 is_stmt 1 discriminator 1 view .LVU68
  56:Src/motion/mixer.c **** 		{
 261              		.loc 1 56 17 is_stmt 0 discriminator 1 view .LVU69
 262 0148 0D4B     		ldr	r3, .L15+44
 263 014a 1B78     		ldrb	r3, [r3]	@ zero_extendqisi2
  56:Src/motion/mixer.c **** 		{
 264              		.loc 1 56 3 discriminator 1 view .LVU70
 265 014c A342     		cmp	r3, r4
 266 014e BDD8     		bhi	.L10
 267 0150 64E7     		b	.L5
 268              	.L16:
 269 0152 00BF     		.align	2
 270              	.L15:
 271 0154 00000000 		.word	armed
 272 0158 00000000 		.word	motor_value
 273 015c 00000000 		.word	ratePID
 274 0160 00000000 		.word	eepromConfig
 275 0164 00000000 		.word	.LANCHOR0
 276 0168 00000000 		.word	.LANCHOR1
 277 016c 00000000 		.word	rxCommands
 278 0170 00007A45 		.word	1165623296
 279 0174 6666663F 		.word	1063675494
 280 0178 0000C843 		.word	1137180672
 281 017c 00003C42 		.word	1111228416
 282 0180 00000000 		.word	.LANCHOR2
 283              	.LBE2:
 284              		.cfi_endproc
 285              	.LFE188:
ARM GAS  /var/folders/9y/n02fl3g16gnf7ppy14xghdy80000gn/T//ccmn5UH5.s 			page 8


 287              		.global	motor_temp
 288              		.global	speedCmd
 289              		.global	steerCmd
 290              		.global	throttleCmd
 291              		.global	numberMotor
 292              		.section	.bss.motor_temp,"aw",%nobits
 293              		.align	2
 294              		.set	.LANCHOR1,. + 0
 297              	motor_temp:
 298 0000 00000000 		.space	8
 298      00000000 
 299              		.section	.bss.speedCmd,"aw",%nobits
 300              		.align	1
 303              	speedCmd:
 304 0000 0000     		.space	2
 305              		.section	.bss.steerCmd,"aw",%nobits
 306              		.align	1
 309              	steerCmd:
 310 0000 0000     		.space	2
 311              		.section	.bss.throttleCmd,"aw",%nobits
 312              		.align	1
 313              		.set	.LANCHOR0,. + 0
 316              	throttleCmd:
 317 0000 0000     		.space	2
 318              		.section	.data.numberMotor,"aw"
 319              		.set	.LANCHOR2,. + 0
 322              	numberMotor:
 323 0000 04       		.byte	4
 324              		.text
 325              	.Letext0:
 326              		.file 2 "/opt/homebrew/Cellar/arm-none-eabi-gcc/10.3-2021.07/gcc/arm-none-eabi/include/machine/_de
 327              		.file 3 "/opt/homebrew/Cellar/arm-none-eabi-gcc/10.3-2021.07/gcc/arm-none-eabi/include/sys/_stdint
 328              		.file 4 "Src/pid.h"
 329              		.file 5 "Src/baredrones32.h"
 330              		.file 6 "Src/motion/process_commands.h"
 331              		.file 7 "Src/motion/compute_axis_commands.h"
 332              		.file 8 "Src/motion/mixer.h"
 333              		.file 9 "Src/drv/drv_dshot.h"
 334              		.file 10 "Src/motors.h"
 335              		.file 11 "Src/utilities.h"
 336              		.file 12 "Src/drv/drv_system.h"
ARM GAS  /var/folders/9y/n02fl3g16gnf7ppy14xghdy80000gn/T//ccmn5UH5.s 			page 9

