ARM GAS  /var/folders/9y/n02fl3g16gnf7ppy14xghdy80000gn/T//ccULbvV3.s 			page 1


   1              		.cpu cortex-m7
   2              		.eabi_attribute 27, 1
   3              		.eabi_attribute 28, 1
   4              		.eabi_attribute 20, 1
   5              		.eabi_attribute 21, 1
   6              		.eabi_attribute 23, 3
   7              		.eabi_attribute 24, 1
   8              		.eabi_attribute 25, 1
   9              		.eabi_attribute 26, 1
  10              		.eabi_attribute 30, 1
  11              		.eabi_attribute 34, 1
  12              		.eabi_attribute 18, 4
  13              		.file	"motors.c"
  14              		.text
  15              	.Ltext0:
  16              		.cfi_sections	.debug_frame
  17              		.section	.rodata.motorInit.str1.4,"aMS",%progbits,1
  18              		.align	2
  19              	.LC0:
  20 0000 0A496E69 		.ascii	"\012Initializing Motors\000"
  20      7469616C 
  20      697A696E 
  20      67204D6F 
  20      746F7273 
  21              		.section	.text.motorInit,"ax",%progbits
  22              		.align	1
  23              		.global	motorInit
  24              		.arch armv7e-m
  25              		.syntax unified
  26              		.thumb
  27              		.thumb_func
  28              		.fpu fpv5-sp-d16
  30              	motorInit:
  31              	.LFB187:
  32              		.file 1 "Src/motors.c"
   1:Src/motors.c  **** /** @file 		motors.c
   2:Src/motors.c  ****  *  @brief
   3:Src/motors.c  ****  *  	This file contains functions to initialize the ESC or change modes
   4:Src/motors.c  ****  *
   5:Src/motors.c  ****  *
   6:Src/motors.c  ****  *  @author 	Jeremy Wolfe
   7:Src/motors.c  ****  *  @date 		03 MAR 2022
   8:Src/motors.c  ****  */
   9:Src/motors.c  **** 
  10:Src/motors.c  **** /* Includes */
  11:Src/motors.c  **** #include "board.h"
  12:Src/motors.c  **** 
  13:Src/motors.c  **** /* Global Variables */
  14:Src/motors.c  **** uint16_t motor_value[MOTOR_COUNT];
  15:Src/motors.c  **** 
  16:Src/motors.c  **** semaphore_t motor_initialized = false;
  17:Src/motors.c  **** 
  18:Src/motors.c  **** motors_mode_e motors_mode = MOTORS_MODE_NORMAL;
  19:Src/motors.c  **** 
  20:Src/motors.c  **** 
  21:Src/motors.c  **** /** @brief Sets motor_value to 0 for all motors.
  22:Src/motors.c  ****  *
ARM GAS  /var/folders/9y/n02fl3g16gnf7ppy14xghdy80000gn/T//ccULbvV3.s 			page 2


  23:Src/motors.c  ****  *  @return Void.
  24:Src/motors.c  ****  */
  25:Src/motors.c  **** void
  26:Src/motors.c  **** motorInit(void)
  27:Src/motors.c  **** {
  33              		.loc 1 27 1 view -0
  34              		.cfi_startproc
  35              		@ args = 0, pretend = 0, frame = 0
  36              		@ frame_needed = 0, uses_anonymous_args = 0
  37 0000 08B5     		push	{r3, lr}
  38              		.cfi_def_cfa_offset 8
  39              		.cfi_offset 3, -8
  40              		.cfi_offset 14, -4
  28:Src/motors.c  **** 	printf("\nInitializing Motors\n");
  41              		.loc 1 28 2 view .LVU1
  42 0002 0748     		ldr	r0, .L3
  43 0004 FFF7FEFF 		bl	puts
  44              	.LVL0:
  29:Src/motors.c  **** 
  30:Src/motors.c  **** 	motor_value[MOTOR1] = DSHOT_CMD_MOTOR_STOP;
  45              		.loc 1 30 2 view .LVU2
  46              		.loc 1 30 22 is_stmt 0 view .LVU3
  47 0008 064B     		ldr	r3, .L3+4
  48 000a 0022     		movs	r2, #0
  49 000c 1A80     		strh	r2, [r3]	@ movhi
  31:Src/motors.c  **** 	motor_value[MOTOR2] = DSHOT_CMD_MOTOR_STOP;
  50              		.loc 1 31 2 is_stmt 1 view .LVU4
  51              		.loc 1 31 22 is_stmt 0 view .LVU5
  52 000e 5A80     		strh	r2, [r3, #2]	@ movhi
  32:Src/motors.c  **** 	motor_value[MOTOR3] = DSHOT_CMD_MOTOR_STOP;
  53              		.loc 1 32 2 is_stmt 1 view .LVU6
  54              		.loc 1 32 22 is_stmt 0 view .LVU7
  55 0010 9A80     		strh	r2, [r3, #4]	@ movhi
  33:Src/motors.c  **** 	motor_value[MOTOR4] = DSHOT_CMD_MOTOR_STOP;
  56              		.loc 1 33 2 is_stmt 1 view .LVU8
  57              		.loc 1 33 22 is_stmt 0 view .LVU9
  58 0012 DA80     		strh	r2, [r3, #6]	@ movhi
  34:Src/motors.c  **** 
  35:Src/motors.c  **** 	dshotWait(DSHOT_ARM_COUNT);
  59              		.loc 1 35 2 is_stmt 1 view .LVU10
  60 0014 40F2DC50 		movw	r0, #1500
  61 0018 FFF7FEFF 		bl	dshotWait
  62              	.LVL1:
  36:Src/motors.c  **** }
  63              		.loc 1 36 1 is_stmt 0 view .LVU11
  64 001c 08BD     		pop	{r3, pc}
  65              	.L4:
  66 001e 00BF     		.align	2
  67              	.L3:
  68 0020 00000000 		.word	.LC0
  69 0024 00000000 		.word	.LANCHOR0
  70              		.cfi_endproc
  71              	.LFE187:
  73              		.section	.rodata.motors3dOn.str1.4,"aMS",%progbits,1
  74              		.align	2
  75              	.LC1:
  76 0000 0A436861 		.ascii	"\012Changed motors 2 and 4 to 3D mode\000"
ARM GAS  /var/folders/9y/n02fl3g16gnf7ppy14xghdy80000gn/T//ccULbvV3.s 			page 3


  76      6E676564 
  76      206D6F74 
  76      6F727320 
  76      3220616E 
  77              		.section	.text.motors3dOn,"ax",%progbits
  78              		.align	1
  79              		.global	motors3dOn
  80              		.syntax unified
  81              		.thumb
  82              		.thumb_func
  83              		.fpu fpv5-sp-d16
  85              	motors3dOn:
  86              	.LFB188:
  37:Src/motors.c  **** 
  38:Src/motors.c  **** /** @brief Changes motor mode to 3D.
  39:Src/motors.c  ****  *
  40:Src/motors.c  ****  *  @return Void.
  41:Src/motors.c  ****  */
  42:Src/motors.c  **** void
  43:Src/motors.c  **** motors3dOn(void)
  44:Src/motors.c  **** {
  87              		.loc 1 44 1 is_stmt 1 view -0
  88              		.cfi_startproc
  89              		@ args = 0, pretend = 0, frame = 0
  90              		@ frame_needed = 0, uses_anonymous_args = 0
  91 0000 F8B5     		push	{r3, r4, r5, r6, r7, lr}
  92              		.cfi_def_cfa_offset 24
  93              		.cfi_offset 3, -24
  94              		.cfi_offset 4, -20
  95              		.cfi_offset 5, -16
  96              		.cfi_offset 6, -12
  97              		.cfi_offset 7, -8
  98              		.cfi_offset 14, -4
  45:Src/motors.c  **** 	motor_value[MOTOR1] = DSHOT_CMD_MOTOR_STOP;
  99              		.loc 1 45 2 view .LVU13
 100              		.loc 1 45 22 is_stmt 0 view .LVU14
 101 0002 114C     		ldr	r4, .L7
 102 0004 0025     		movs	r5, #0
 103 0006 2580     		strh	r5, [r4]	@ movhi
  46:Src/motors.c  **** 	motor_value[MOTOR2] = DSHOT_CMD_MOTOR_STOP;
 104              		.loc 1 46 2 is_stmt 1 view .LVU15
 105              		.loc 1 46 22 is_stmt 0 view .LVU16
 106 0008 6580     		strh	r5, [r4, #2]	@ movhi
  47:Src/motors.c  **** 	motor_value[MOTOR3] = DSHOT_CMD_MOTOR_STOP;
 107              		.loc 1 47 2 is_stmt 1 view .LVU17
 108              		.loc 1 47 22 is_stmt 0 view .LVU18
 109 000a A580     		strh	r5, [r4, #4]	@ movhi
  48:Src/motors.c  **** 	motor_value[MOTOR4] = DSHOT_CMD_MOTOR_STOP;
 110              		.loc 1 48 2 is_stmt 1 view .LVU19
 111              		.loc 1 48 22 is_stmt 0 view .LVU20
 112 000c E580     		strh	r5, [r4, #6]	@ movhi
  49:Src/motors.c  **** 	dshotWait(DSHOT_ARM_COUNT);
 113              		.loc 1 49 2 is_stmt 1 view .LVU21
 114 000e 40F2DC50 		movw	r0, #1500
 115 0012 FFF7FEFF 		bl	dshotWait
 116              	.LVL2:
  50:Src/motors.c  **** 
ARM GAS  /var/folders/9y/n02fl3g16gnf7ppy14xghdy80000gn/T//ccULbvV3.s 			page 4


  51:Src/motors.c  **** 	motor_initialized = true;
 117              		.loc 1 51 2 view .LVU22
 118              		.loc 1 51 20 is_stmt 0 view .LVU23
 119 0016 0D4F     		ldr	r7, .L7+4
 120 0018 0126     		movs	r6, #1
 121 001a 3E70     		strb	r6, [r7]
  52:Src/motors.c  **** 	delay(10);
 122              		.loc 1 52 2 is_stmt 1 view .LVU24
 123 001c 0A20     		movs	r0, #10
 124 001e FFF7FEFF 		bl	delay
 125              	.LVL3:
  53:Src/motors.c  **** 	motor_initialized = false;
 126              		.loc 1 53 2 view .LVU25
 127              		.loc 1 53 20 is_stmt 0 view .LVU26
 128 0022 3D70     		strb	r5, [r7]
  54:Src/motors.c  **** 
  55:Src/motors.c  **** 	motor_value[MOTOR2] = DSHOT_CMD_3D_MODE_ON;
 129              		.loc 1 55 2 is_stmt 1 view .LVU27
 130              		.loc 1 55 22 is_stmt 0 view .LVU28
 131 0024 0A20     		movs	r0, #10
 132 0026 6080     		strh	r0, [r4, #2]	@ movhi
  56:Src/motors.c  **** 	motor_value[MOTOR4] = DSHOT_CMD_3D_MODE_ON;
 133              		.loc 1 56 2 is_stmt 1 view .LVU29
 134              		.loc 1 56 22 is_stmt 0 view .LVU30
 135 0028 E080     		strh	r0, [r4, #6]	@ movhi
  57:Src/motors.c  **** 	dshotWait(DSHOT_SETTINGS_COUNT);
 136              		.loc 1 57 2 is_stmt 1 view .LVU31
 137 002a FFF7FEFF 		bl	dshotWait
 138              	.LVL4:
  58:Src/motors.c  **** 
  59:Src/motors.c  **** 	motor_value[MOTOR2] = DSHOT_CMD_MOTOR_STOP;
 139              		.loc 1 59 2 view .LVU32
 140              		.loc 1 59 22 is_stmt 0 view .LVU33
 141 002e 6580     		strh	r5, [r4, #2]	@ movhi
  60:Src/motors.c  **** 	motor_value[MOTOR4] = DSHOT_CMD_MOTOR_STOP;
 142              		.loc 1 60 2 is_stmt 1 view .LVU34
 143              		.loc 1 60 22 is_stmt 0 view .LVU35
 144 0030 E580     		strh	r5, [r4, #6]	@ movhi
  61:Src/motors.c  **** 	dshotWait(DSHOT_ARM_COUNT);
 145              		.loc 1 61 2 is_stmt 1 view .LVU36
 146 0032 40F2DC50 		movw	r0, #1500
 147 0036 FFF7FEFF 		bl	dshotWait
 148              	.LVL5:
  62:Src/motors.c  **** 
  63:Src/motors.c  **** 	motors_mode = MOTORS_MODE_3D;
 149              		.loc 1 63 2 view .LVU37
 150              		.loc 1 63 14 is_stmt 0 view .LVU38
 151 003a 054B     		ldr	r3, .L7+8
 152 003c 1E70     		strb	r6, [r3]
  64:Src/motors.c  **** 	printf("\nChanged motors 2 and 4 to 3D mode\n");
 153              		.loc 1 64 2 is_stmt 1 view .LVU39
 154 003e 0548     		ldr	r0, .L7+12
 155 0040 FFF7FEFF 		bl	puts
 156              	.LVL6:
  65:Src/motors.c  **** }
 157              		.loc 1 65 1 is_stmt 0 view .LVU40
 158 0044 F8BD     		pop	{r3, r4, r5, r6, r7, pc}
ARM GAS  /var/folders/9y/n02fl3g16gnf7ppy14xghdy80000gn/T//ccULbvV3.s 			page 5


 159              	.L8:
 160 0046 00BF     		.align	2
 161              	.L7:
 162 0048 00000000 		.word	.LANCHOR0
 163 004c 00000000 		.word	.LANCHOR1
 164 0050 00000000 		.word	.LANCHOR2
 165 0054 00000000 		.word	.LC1
 166              		.cfi_endproc
 167              	.LFE188:
 169              		.section	.rodata.motors3dOff.str1.4,"aMS",%progbits,1
 170              		.align	2
 171              	.LC2:
 172 0000 0A436861 		.ascii	"\012Changed motors 2 and 4 to NORMAL mode\000"
 172      6E676564 
 172      206D6F74 
 172      6F727320 
 172      3220616E 
 173              		.section	.text.motors3dOff,"ax",%progbits
 174              		.align	1
 175              		.global	motors3dOff
 176              		.syntax unified
 177              		.thumb
 178              		.thumb_func
 179              		.fpu fpv5-sp-d16
 181              	motors3dOff:
 182              	.LFB189:
  66:Src/motors.c  **** 
  67:Src/motors.c  **** /** @brief Changes motor mode to 3D.
  68:Src/motors.c  ****  *
  69:Src/motors.c  ****  *  @return Void.
  70:Src/motors.c  ****  */
  71:Src/motors.c  **** void
  72:Src/motors.c  **** motors3dOff(void)
  73:Src/motors.c  **** {
 183              		.loc 1 73 1 is_stmt 1 view -0
 184              		.cfi_startproc
 185              		@ args = 0, pretend = 0, frame = 0
 186              		@ frame_needed = 0, uses_anonymous_args = 0
 187 0000 70B5     		push	{r4, r5, r6, lr}
 188              		.cfi_def_cfa_offset 16
 189              		.cfi_offset 4, -16
 190              		.cfi_offset 5, -12
 191              		.cfi_offset 6, -8
 192              		.cfi_offset 14, -4
  74:Src/motors.c  **** 	dshot_command_count = 0;
 193              		.loc 1 74 2 view .LVU42
 194              		.loc 1 74 22 is_stmt 0 view .LVU43
 195 0002 0024     		movs	r4, #0
 196 0004 114B     		ldr	r3, .L11
 197 0006 1C80     		strh	r4, [r3]	@ movhi
  75:Src/motors.c  **** 
  76:Src/motors.c  **** 	motor_value[MOTOR1] = DSHOT_CMD_MOTOR_STOP;
 198              		.loc 1 76 2 is_stmt 1 view .LVU44
 199              		.loc 1 76 22 is_stmt 0 view .LVU45
 200 0008 114D     		ldr	r5, .L11+4
 201 000a 2C80     		strh	r4, [r5]	@ movhi
  77:Src/motors.c  **** 	motor_value[MOTOR2] = DSHOT_CMD_MOTOR_STOP;
ARM GAS  /var/folders/9y/n02fl3g16gnf7ppy14xghdy80000gn/T//ccULbvV3.s 			page 6


 202              		.loc 1 77 2 is_stmt 1 view .LVU46
 203              		.loc 1 77 22 is_stmt 0 view .LVU47
 204 000c 6C80     		strh	r4, [r5, #2]	@ movhi
  78:Src/motors.c  **** 	motor_value[MOTOR3] = DSHOT_CMD_MOTOR_STOP;
 205              		.loc 1 78 2 is_stmt 1 view .LVU48
 206              		.loc 1 78 22 is_stmt 0 view .LVU49
 207 000e AC80     		strh	r4, [r5, #4]	@ movhi
  79:Src/motors.c  **** 	motor_value[MOTOR4] = DSHOT_CMD_MOTOR_STOP;
 208              		.loc 1 79 2 is_stmt 1 view .LVU50
 209              		.loc 1 79 22 is_stmt 0 view .LVU51
 210 0010 EC80     		strh	r4, [r5, #6]	@ movhi
  80:Src/motors.c  **** 	dshotWait(DSHOT_ARM_COUNT);
 211              		.loc 1 80 2 is_stmt 1 view .LVU52
 212 0012 40F2DC50 		movw	r0, #1500
 213 0016 FFF7FEFF 		bl	dshotWait
 214              	.LVL7:
  81:Src/motors.c  **** 
  82:Src/motors.c  **** 	motor_initialized = true;
 215              		.loc 1 82 2 view .LVU53
 216              		.loc 1 82 20 is_stmt 0 view .LVU54
 217 001a 0E4E     		ldr	r6, .L11+8
 218 001c 0123     		movs	r3, #1
 219 001e 3370     		strb	r3, [r6]
  83:Src/motors.c  **** 	delay(10);
 220              		.loc 1 83 2 is_stmt 1 view .LVU55
 221 0020 0A20     		movs	r0, #10
 222 0022 FFF7FEFF 		bl	delay
 223              	.LVL8:
  84:Src/motors.c  **** 	motor_initialized = false;
 224              		.loc 1 84 2 view .LVU56
 225              		.loc 1 84 20 is_stmt 0 view .LVU57
 226 0026 3470     		strb	r4, [r6]
  85:Src/motors.c  **** 
  86:Src/motors.c  **** 	motor_value[MOTOR2] = DSHOT_CMD_3D_MODE_OFF;
 227              		.loc 1 86 2 is_stmt 1 view .LVU58
 228              		.loc 1 86 22 is_stmt 0 view .LVU59
 229 0028 0923     		movs	r3, #9
 230 002a 6B80     		strh	r3, [r5, #2]	@ movhi
  87:Src/motors.c  **** 	motor_value[MOTOR4] = DSHOT_CMD_3D_MODE_OFF;
 231              		.loc 1 87 2 is_stmt 1 view .LVU60
 232              		.loc 1 87 22 is_stmt 0 view .LVU61
 233 002c EB80     		strh	r3, [r5, #6]	@ movhi
  88:Src/motors.c  **** 	dshotWait(DSHOT_SETTINGS_COUNT);
 234              		.loc 1 88 2 is_stmt 1 view .LVU62
 235 002e 0A20     		movs	r0, #10
 236 0030 FFF7FEFF 		bl	dshotWait
 237              	.LVL9:
  89:Src/motors.c  **** 
  90:Src/motors.c  **** 	motor_value[MOTOR2] = DSHOT_CMD_MOTOR_STOP;
 238              		.loc 1 90 2 view .LVU63
 239              		.loc 1 90 22 is_stmt 0 view .LVU64
 240 0034 6C80     		strh	r4, [r5, #2]	@ movhi
  91:Src/motors.c  **** 	motor_value[MOTOR4] = DSHOT_CMD_MOTOR_STOP;
 241              		.loc 1 91 2 is_stmt 1 view .LVU65
 242              		.loc 1 91 22 is_stmt 0 view .LVU66
 243 0036 EC80     		strh	r4, [r5, #6]	@ movhi
  92:Src/motors.c  **** 	dshotWait(DSHOT_ARM_COUNT);
ARM GAS  /var/folders/9y/n02fl3g16gnf7ppy14xghdy80000gn/T//ccULbvV3.s 			page 7


 244              		.loc 1 92 2 is_stmt 1 view .LVU67
 245 0038 40F2DC50 		movw	r0, #1500
 246 003c FFF7FEFF 		bl	dshotWait
 247              	.LVL10:
  93:Src/motors.c  **** 
  94:Src/motors.c  **** 	motors_mode = MOTORS_MODE_NORMAL;
 248              		.loc 1 94 2 view .LVU68
 249              		.loc 1 94 14 is_stmt 0 view .LVU69
 250 0040 054B     		ldr	r3, .L11+12
 251 0042 1C70     		strb	r4, [r3]
  95:Src/motors.c  **** 	printf("\nChanged motors 2 and 4 to NORMAL mode\n");
 252              		.loc 1 95 2 is_stmt 1 view .LVU70
 253 0044 0548     		ldr	r0, .L11+16
 254 0046 FFF7FEFF 		bl	puts
 255              	.LVL11:
  96:Src/motors.c  **** }
 256              		.loc 1 96 1 is_stmt 0 view .LVU71
 257 004a 70BD     		pop	{r4, r5, r6, pc}
 258              	.L12:
 259              		.align	2
 260              	.L11:
 261 004c 00000000 		.word	dshot_command_count
 262 0050 00000000 		.word	.LANCHOR0
 263 0054 00000000 		.word	.LANCHOR1
 264 0058 00000000 		.word	.LANCHOR2
 265 005c 00000000 		.word	.LC2
 266              		.cfi_endproc
 267              	.LFE189:
 269              		.section	.rodata.motorsSettingsSave.str1.4,"aMS",%progbits,1
 270              		.align	2
 271              	.LC3:
 272 0000 0A536574 		.ascii	"\012Settings Saved\000"
 272      74696E67 
 272      73205361 
 272      76656400 
 273              		.section	.text.motorsSettingsSave,"ax",%progbits
 274              		.align	1
 275              		.global	motorsSettingsSave
 276              		.syntax unified
 277              		.thumb
 278              		.thumb_func
 279              		.fpu fpv5-sp-d16
 281              	motorsSettingsSave:
 282              	.LFB190:
  97:Src/motors.c  **** 
  98:Src/motors.c  **** void
  99:Src/motors.c  **** motorsSettingsSave(void)
 100:Src/motors.c  **** {
 283              		.loc 1 100 1 is_stmt 1 view -0
 284              		.cfi_startproc
 285              		@ args = 0, pretend = 0, frame = 0
 286              		@ frame_needed = 0, uses_anonymous_args = 0
 287 0000 70B5     		push	{r4, r5, r6, lr}
 288              		.cfi_def_cfa_offset 16
 289              		.cfi_offset 4, -16
 290              		.cfi_offset 5, -12
 291              		.cfi_offset 6, -8
ARM GAS  /var/folders/9y/n02fl3g16gnf7ppy14xghdy80000gn/T//ccULbvV3.s 			page 8


 292              		.cfi_offset 14, -4
 101:Src/motors.c  **** 	dshot_command_count = 0;
 293              		.loc 1 101 2 view .LVU73
 294              		.loc 1 101 22 is_stmt 0 view .LVU74
 295 0002 0025     		movs	r5, #0
 296 0004 104B     		ldr	r3, .L15
 297 0006 1D80     		strh	r5, [r3]	@ movhi
 102:Src/motors.c  **** 
 103:Src/motors.c  **** 	motor_value[MOTOR1] = DSHOT_CMD_MOTOR_STOP;
 298              		.loc 1 103 2 is_stmt 1 view .LVU75
 299              		.loc 1 103 22 is_stmt 0 view .LVU76
 300 0008 104C     		ldr	r4, .L15+4
 301 000a 2580     		strh	r5, [r4]	@ movhi
 104:Src/motors.c  **** 	motor_value[MOTOR2] = DSHOT_CMD_MOTOR_STOP;
 302              		.loc 1 104 2 is_stmt 1 view .LVU77
 303              		.loc 1 104 22 is_stmt 0 view .LVU78
 304 000c 6580     		strh	r5, [r4, #2]	@ movhi
 105:Src/motors.c  **** 	motor_value[MOTOR3] = DSHOT_CMD_MOTOR_STOP;
 305              		.loc 1 105 2 is_stmt 1 view .LVU79
 306              		.loc 1 105 22 is_stmt 0 view .LVU80
 307 000e A580     		strh	r5, [r4, #4]	@ movhi
 106:Src/motors.c  **** 	motor_value[MOTOR4] = DSHOT_CMD_MOTOR_STOP;
 308              		.loc 1 106 2 is_stmt 1 view .LVU81
 309              		.loc 1 106 22 is_stmt 0 view .LVU82
 310 0010 E580     		strh	r5, [r4, #6]	@ movhi
 107:Src/motors.c  **** 	dshotWait(DSHOT_ARM_COUNT);
 311              		.loc 1 107 2 is_stmt 1 view .LVU83
 312 0012 40F2DC50 		movw	r0, #1500
 313 0016 FFF7FEFF 		bl	dshotWait
 314              	.LVL12:
 108:Src/motors.c  **** 
 109:Src/motors.c  **** 	motor_initialized = true;
 315              		.loc 1 109 2 view .LVU84
 316              		.loc 1 109 20 is_stmt 0 view .LVU85
 317 001a 0D4E     		ldr	r6, .L15+8
 318 001c 0123     		movs	r3, #1
 319 001e 3370     		strb	r3, [r6]
 110:Src/motors.c  **** 	delay(10);
 320              		.loc 1 110 2 is_stmt 1 view .LVU86
 321 0020 0A20     		movs	r0, #10
 322 0022 FFF7FEFF 		bl	delay
 323              	.LVL13:
 111:Src/motors.c  **** 	motor_initialized = false;
 324              		.loc 1 111 2 view .LVU87
 325              		.loc 1 111 20 is_stmt 0 view .LVU88
 326 0026 3570     		strb	r5, [r6]
 112:Src/motors.c  **** 
 113:Src/motors.c  **** 	motor_value[MOTOR2] = DSHOT_CMD_SAVE_SETTINGS;
 327              		.loc 1 113 2 is_stmt 1 view .LVU89
 328              		.loc 1 113 22 is_stmt 0 view .LVU90
 329 0028 0C23     		movs	r3, #12
 330 002a 6380     		strh	r3, [r4, #2]	@ movhi
 114:Src/motors.c  **** 	motor_value[MOTOR4] = DSHOT_CMD_SAVE_SETTINGS;
 331              		.loc 1 114 2 is_stmt 1 view .LVU91
 332              		.loc 1 114 22 is_stmt 0 view .LVU92
 333 002c E380     		strh	r3, [r4, #6]	@ movhi
 115:Src/motors.c  **** 	dshotWait(DSHOT_SETTINGS_COUNT);
ARM GAS  /var/folders/9y/n02fl3g16gnf7ppy14xghdy80000gn/T//ccULbvV3.s 			page 9


 334              		.loc 1 115 2 is_stmt 1 view .LVU93
 335 002e 0A20     		movs	r0, #10
 336 0030 FFF7FEFF 		bl	dshotWait
 337              	.LVL14:
 116:Src/motors.c  **** 
 117:Src/motors.c  **** 	motor_value[MOTOR2] = DSHOT_CMD_MOTOR_STOP;
 338              		.loc 1 117 2 view .LVU94
 339              		.loc 1 117 22 is_stmt 0 view .LVU95
 340 0034 6580     		strh	r5, [r4, #2]	@ movhi
 118:Src/motors.c  **** 	motor_value[MOTOR4] = DSHOT_CMD_MOTOR_STOP;
 341              		.loc 1 118 2 is_stmt 1 view .LVU96
 342              		.loc 1 118 22 is_stmt 0 view .LVU97
 343 0036 E580     		strh	r5, [r4, #6]	@ movhi
 119:Src/motors.c  **** 	dshotWait(DSHOT_ARM_COUNT);
 344              		.loc 1 119 2 is_stmt 1 view .LVU98
 345 0038 40F2DC50 		movw	r0, #1500
 346 003c FFF7FEFF 		bl	dshotWait
 347              	.LVL15:
 120:Src/motors.c  **** 
 121:Src/motors.c  **** 	printf("\nSettings Saved\n");
 348              		.loc 1 121 2 view .LVU99
 349 0040 0448     		ldr	r0, .L15+12
 350 0042 FFF7FEFF 		bl	puts
 351              	.LVL16:
 122:Src/motors.c  **** }
 352              		.loc 1 122 1 is_stmt 0 view .LVU100
 353 0046 70BD     		pop	{r4, r5, r6, pc}
 354              	.L16:
 355              		.align	2
 356              	.L15:
 357 0048 00000000 		.word	dshot_command_count
 358 004c 00000000 		.word	.LANCHOR0
 359 0050 00000000 		.word	.LANCHOR1
 360 0054 00000000 		.word	.LC3
 361              		.cfi_endproc
 362              	.LFE190:
 364              		.section	.rodata.motorsChangeMode.str1.4,"aMS",%progbits,1
 365              		.align	2
 366              	.LC4:
 367 0000 0A436861 		.ascii	"\012Changed motors 3D mode\000"
 367      6E676564 
 367      206D6F74 
 367      6F727320 
 367      3344206D 
 368              		.align	2
 369              	.LC5:
 370 0018 0A436861 		.ascii	"\012Changed motors NORMAL mode\000"
 370      6E676564 
 370      206D6F74 
 370      6F727320 
 370      4E4F524D 
 371              		.section	.text.motorsChangeMode,"ax",%progbits
 372              		.align	1
 373              		.global	motorsChangeMode
 374              		.syntax unified
 375              		.thumb
 376              		.thumb_func
ARM GAS  /var/folders/9y/n02fl3g16gnf7ppy14xghdy80000gn/T//ccULbvV3.s 			page 10


 377              		.fpu fpv5-sp-d16
 379              	motorsChangeMode:
 380              	.LVL17:
 381              	.LFB191:
 123:Src/motors.c  **** 
 124:Src/motors.c  **** void
 125:Src/motors.c  **** motorsChangeMode(dshotCommands_e command, motors_grouped_e motors)
 126:Src/motors.c  **** {
 382              		.loc 1 126 1 is_stmt 1 view -0
 383              		.cfi_startproc
 384              		@ args = 0, pretend = 0, frame = 0
 385              		@ frame_needed = 0, uses_anonymous_args = 0
 386              		.loc 1 126 1 is_stmt 0 view .LVU102
 387 0000 2DE9F041 		push	{r4, r5, r6, r7, r8, lr}
 388              		.cfi_def_cfa_offset 24
 389              		.cfi_offset 4, -24
 390              		.cfi_offset 5, -20
 391              		.cfi_offset 6, -16
 392              		.cfi_offset 7, -12
 393              		.cfi_offset 8, -8
 394              		.cfi_offset 14, -4
 395 0004 0746     		mov	r7, r0
 396 0006 0E46     		mov	r6, r1
 127:Src/motors.c  **** 	dshot_command_count = 0;
 397              		.loc 1 127 2 is_stmt 1 view .LVU103
 398              		.loc 1 127 22 is_stmt 0 view .LVU104
 399 0008 0025     		movs	r5, #0
 400 000a 244B     		ldr	r3, .L23
 401 000c 1D80     		strh	r5, [r3]	@ movhi
 128:Src/motors.c  **** 
 129:Src/motors.c  **** 	/* Send 0 command 1500 times */
 130:Src/motors.c  **** 	motor_value[MOTOR1] = DSHOT_CMD_MOTOR_STOP;
 402              		.loc 1 130 2 is_stmt 1 view .LVU105
 403              		.loc 1 130 22 is_stmt 0 view .LVU106
 404 000e 244C     		ldr	r4, .L23+4
 405 0010 2580     		strh	r5, [r4]	@ movhi
 131:Src/motors.c  **** 	motor_value[MOTOR2] = DSHOT_CMD_MOTOR_STOP;
 406              		.loc 1 131 2 is_stmt 1 view .LVU107
 407              		.loc 1 131 22 is_stmt 0 view .LVU108
 408 0012 6580     		strh	r5, [r4, #2]	@ movhi
 132:Src/motors.c  **** 	motor_value[MOTOR3] = DSHOT_CMD_MOTOR_STOP;
 409              		.loc 1 132 2 is_stmt 1 view .LVU109
 410              		.loc 1 132 22 is_stmt 0 view .LVU110
 411 0014 A580     		strh	r5, [r4, #4]	@ movhi
 133:Src/motors.c  **** 	motor_value[MOTOR4] = DSHOT_CMD_MOTOR_STOP;
 412              		.loc 1 133 2 is_stmt 1 view .LVU111
 413              		.loc 1 133 22 is_stmt 0 view .LVU112
 414 0016 E580     		strh	r5, [r4, #6]	@ movhi
 134:Src/motors.c  **** 	dshotWait(DSHOT_ARM_COUNT);
 415              		.loc 1 134 2 is_stmt 1 view .LVU113
 416 0018 40F2DC50 		movw	r0, #1500
 417              	.LVL18:
 418              		.loc 1 134 2 is_stmt 0 view .LVU114
 419 001c FFF7FEFF 		bl	dshotWait
 420              	.LVL19:
 135:Src/motors.c  **** 
 136:Src/motors.c  **** 	/* Send nothing for 10ms */
ARM GAS  /var/folders/9y/n02fl3g16gnf7ppy14xghdy80000gn/T//ccULbvV3.s 			page 11


 137:Src/motors.c  **** 	motor_initialized = true;
 421              		.loc 1 137 2 is_stmt 1 view .LVU115
 422              		.loc 1 137 20 is_stmt 0 view .LVU116
 423 0020 DFF88C80 		ldr	r8, .L23+20
 424 0024 0123     		movs	r3, #1
 425 0026 88F80030 		strb	r3, [r8]
 138:Src/motors.c  **** 	delay(10);
 426              		.loc 1 138 2 is_stmt 1 view .LVU117
 427 002a 0A20     		movs	r0, #10
 428 002c FFF7FEFF 		bl	delay
 429              	.LVL20:
 139:Src/motors.c  **** 	motor_initialized = false;
 430              		.loc 1 139 2 view .LVU118
 431              		.loc 1 139 20 is_stmt 0 view .LVU119
 432 0030 88F80050 		strb	r5, [r8]
 140:Src/motors.c  **** 
 141:Src/motors.c  **** 	/* Send command 10 times */
 142:Src/motors.c  **** 	motor_value[MOTOR1] = ((motors & 0x01) >> 0) * command;
 433              		.loc 1 142 2 is_stmt 1 view .LVU120
 434              		.loc 1 142 22 is_stmt 0 view .LVU121
 435 0034 06F00103 		and	r3, r6, #1
 436 0038 07FB03F3 		mul	r3, r7, r3
 437 003c 2380     		strh	r3, [r4]	@ movhi
 143:Src/motors.c  **** 	motor_value[MOTOR2] = ((motors & 0x02) >> 1) * command;
 438              		.loc 1 143 2 is_stmt 1 view .LVU122
 439              		.loc 1 143 22 is_stmt 0 view .LVU123
 440 003e C6F34003 		ubfx	r3, r6, #1, #1
 441 0042 07FB03F3 		mul	r3, r7, r3
 442 0046 6380     		strh	r3, [r4, #2]	@ movhi
 144:Src/motors.c  **** 	motor_value[MOTOR3] = ((motors & 0x04) >> 2) * command;
 443              		.loc 1 144 2 is_stmt 1 view .LVU124
 444              		.loc 1 144 22 is_stmt 0 view .LVU125
 445 0048 C6F38003 		ubfx	r3, r6, #2, #1
 446 004c 07FB03F3 		mul	r3, r7, r3
 447 0050 A380     		strh	r3, [r4, #4]	@ movhi
 145:Src/motors.c  **** 	motor_value[MOTOR4] = ((motors & 0x08) >> 3) * command;
 448              		.loc 1 145 2 is_stmt 1 view .LVU126
 449              		.loc 1 145 22 is_stmt 0 view .LVU127
 450 0052 C6F3C006 		ubfx	r6, r6, #3, #1
 451 0056 07FB06F6 		mul	r6, r7, r6
 452 005a E680     		strh	r6, [r4, #6]	@ movhi
 146:Src/motors.c  **** 	dshotWait(DSHOT_SETTINGS_COUNT);
 453              		.loc 1 146 2 is_stmt 1 view .LVU128
 454 005c 0A20     		movs	r0, #10
 455 005e FFF7FEFF 		bl	dshotWait
 456              	.LVL21:
 147:Src/motors.c  **** 
 148:Src/motors.c  **** 	/* Send 0 command 1500 times */
 149:Src/motors.c  **** 	motor_value[MOTOR1] = DSHOT_CMD_MOTOR_STOP;
 457              		.loc 1 149 2 view .LVU129
 458              		.loc 1 149 22 is_stmt 0 view .LVU130
 459 0062 2580     		strh	r5, [r4]	@ movhi
 150:Src/motors.c  **** 	motor_value[MOTOR2] = DSHOT_CMD_MOTOR_STOP;
 460              		.loc 1 150 2 is_stmt 1 view .LVU131
 461              		.loc 1 150 22 is_stmt 0 view .LVU132
 462 0064 6580     		strh	r5, [r4, #2]	@ movhi
 151:Src/motors.c  **** 	motor_value[MOTOR3] = DSHOT_CMD_MOTOR_STOP;
ARM GAS  /var/folders/9y/n02fl3g16gnf7ppy14xghdy80000gn/T//ccULbvV3.s 			page 12


 463              		.loc 1 151 2 is_stmt 1 view .LVU133
 464              		.loc 1 151 22 is_stmt 0 view .LVU134
 465 0066 A580     		strh	r5, [r4, #4]	@ movhi
 152:Src/motors.c  **** 	motor_value[MOTOR4] = DSHOT_CMD_MOTOR_STOP;
 466              		.loc 1 152 2 is_stmt 1 view .LVU135
 467              		.loc 1 152 22 is_stmt 0 view .LVU136
 468 0068 E580     		strh	r5, [r4, #6]	@ movhi
 153:Src/motors.c  **** 	dshotWait(DSHOT_ARM_COUNT);
 469              		.loc 1 153 2 is_stmt 1 view .LVU137
 470 006a 40F2DC50 		movw	r0, #1500
 471 006e FFF7FEFF 		bl	dshotWait
 472              	.LVL22:
 154:Src/motors.c  **** 
 155:Src/motors.c  **** 	/* Change modes */
 156:Src/motors.c  **** 	if(command == DSHOT_CMD_3D_MODE_ON)
 473              		.loc 1 156 2 view .LVU138
 474              		.loc 1 156 4 is_stmt 0 view .LVU139
 475 0072 0A2F     		cmp	r7, #10
 476 0074 03D0     		beq	.L21
 157:Src/motors.c  **** 	{
 158:Src/motors.c  **** 		motors_mode = MOTORS_MODE_3D;
 159:Src/motors.c  **** 		printf("\nChanged motors 3D mode");
 160:Src/motors.c  **** 	}
 161:Src/motors.c  **** 	else if(command == DSHOT_CMD_3D_MODE_OFF)
 477              		.loc 1 161 7 is_stmt 1 view .LVU140
 478              		.loc 1 161 9 is_stmt 0 view .LVU141
 479 0076 092F     		cmp	r7, #9
 480 0078 08D0     		beq	.L22
 481              	.L17:
 162:Src/motors.c  **** 	{
 163:Src/motors.c  **** 		motors_mode = MOTORS_MODE_NORMAL;
 164:Src/motors.c  **** 		printf("\nChanged motors NORMAL mode");
 165:Src/motors.c  **** 	}
 166:Src/motors.c  **** }
 482              		.loc 1 166 1 view .LVU142
 483 007a BDE8F081 		pop	{r4, r5, r6, r7, r8, pc}
 484              	.L21:
 158:Src/motors.c  **** 		printf("\nChanged motors 3D mode");
 485              		.loc 1 158 3 is_stmt 1 view .LVU143
 158:Src/motors.c  **** 		printf("\nChanged motors 3D mode");
 486              		.loc 1 158 15 is_stmt 0 view .LVU144
 487 007e 094B     		ldr	r3, .L23+8
 488 0080 0122     		movs	r2, #1
 489 0082 1A70     		strb	r2, [r3]
 159:Src/motors.c  **** 	}
 490              		.loc 1 159 3 is_stmt 1 view .LVU145
 491 0084 0848     		ldr	r0, .L23+12
 492 0086 FFF7FEFF 		bl	printf
 493              	.LVL23:
 494 008a F6E7     		b	.L17
 495              	.L22:
 163:Src/motors.c  **** 		printf("\nChanged motors NORMAL mode");
 496              		.loc 1 163 3 view .LVU146
 163:Src/motors.c  **** 		printf("\nChanged motors NORMAL mode");
 497              		.loc 1 163 15 is_stmt 0 view .LVU147
 498 008c 054B     		ldr	r3, .L23+8
 499 008e 0022     		movs	r2, #0
ARM GAS  /var/folders/9y/n02fl3g16gnf7ppy14xghdy80000gn/T//ccULbvV3.s 			page 13


 500 0090 1A70     		strb	r2, [r3]
 164:Src/motors.c  **** 	}
 501              		.loc 1 164 3 is_stmt 1 view .LVU148
 502 0092 0648     		ldr	r0, .L23+16
 503 0094 FFF7FEFF 		bl	printf
 504              	.LVL24:
 505              		.loc 1 166 1 is_stmt 0 view .LVU149
 506 0098 EFE7     		b	.L17
 507              	.L24:
 508 009a 00BF     		.align	2
 509              	.L23:
 510 009c 00000000 		.word	dshot_command_count
 511 00a0 00000000 		.word	.LANCHOR0
 512 00a4 00000000 		.word	.LANCHOR2
 513 00a8 00000000 		.word	.LC4
 514 00ac 18000000 		.word	.LC5
 515 00b0 00000000 		.word	.LANCHOR1
 516              		.cfi_endproc
 517              	.LFE191:
 519              		.section	.text.motorsBeep,"ax",%progbits
 520              		.align	1
 521              		.global	motorsBeep
 522              		.syntax unified
 523              		.thumb
 524              		.thumb_func
 525              		.fpu fpv5-sp-d16
 527              	motorsBeep:
 528              	.LVL25:
 529              	.LFB192:
 167:Src/motors.c  **** 
 168:Src/motors.c  **** void
 169:Src/motors.c  **** motorsBeep(motors_beeps_e beep)
 170:Src/motors.c  **** {
 530              		.loc 1 170 1 is_stmt 1 view -0
 531              		.cfi_startproc
 532              		@ args = 0, pretend = 0, frame = 0
 533              		@ frame_needed = 0, uses_anonymous_args = 0
 534              		.loc 1 170 1 is_stmt 0 view .LVU151
 535 0000 2DE9F041 		push	{r4, r5, r6, r7, r8, lr}
 536              		.cfi_def_cfa_offset 24
 537              		.cfi_offset 4, -24
 538              		.cfi_offset 5, -20
 539              		.cfi_offset 6, -16
 540              		.cfi_offset 7, -12
 541              		.cfi_offset 8, -8
 542              		.cfi_offset 14, -4
 171:Src/motors.c  **** 	motor_value[MOTOR1] = beep;
 543              		.loc 1 171 2 is_stmt 1 view .LVU152
 544              		.loc 1 171 22 is_stmt 0 view .LVU153
 545 0004 0E4C     		ldr	r4, .L27
 546 0006 2080     		strh	r0, [r4]	@ movhi
 172:Src/motors.c  **** 	motor_value[MOTOR2] = beep;
 547              		.loc 1 172 2 is_stmt 1 view .LVU154
 548              		.loc 1 172 22 is_stmt 0 view .LVU155
 549 0008 6080     		strh	r0, [r4, #2]	@ movhi
 173:Src/motors.c  **** 	motor_value[MOTOR3] = beep;
 550              		.loc 1 173 2 is_stmt 1 view .LVU156
ARM GAS  /var/folders/9y/n02fl3g16gnf7ppy14xghdy80000gn/T//ccULbvV3.s 			page 14


 551              		.loc 1 173 22 is_stmt 0 view .LVU157
 552 000a A080     		strh	r0, [r4, #4]	@ movhi
 174:Src/motors.c  **** 	motor_value[MOTOR4] = beep;
 553              		.loc 1 174 2 is_stmt 1 view .LVU158
 554              		.loc 1 174 22 is_stmt 0 view .LVU159
 555 000c E080     		strh	r0, [r4, #6]	@ movhi
 175:Src/motors.c  **** 	dshotWait(10);
 556              		.loc 1 175 2 is_stmt 1 view .LVU160
 557 000e 0A20     		movs	r0, #10
 558              	.LVL26:
 559              		.loc 1 175 2 is_stmt 0 view .LVU161
 560 0010 FFF7FEFF 		bl	dshotWait
 561              	.LVL27:
 176:Src/motors.c  **** 
 177:Src/motors.c  **** 	systemReady = false;
 562              		.loc 1 177 2 is_stmt 1 view .LVU162
 563              		.loc 1 177 14 is_stmt 0 view .LVU163
 564 0014 0B4F     		ldr	r7, .L27+4
 565 0016 0025     		movs	r5, #0
 566 0018 3D70     		strb	r5, [r7]
 178:Src/motors.c  **** 	motor_initialized = true;
 567              		.loc 1 178 2 is_stmt 1 view .LVU164
 568              		.loc 1 178 20 is_stmt 0 view .LVU165
 569 001a 0B4E     		ldr	r6, .L27+8
 570 001c 4FF00108 		mov	r8, #1
 571 0020 86F80080 		strb	r8, [r6]
 179:Src/motors.c  **** 	delay(300);
 572              		.loc 1 179 2 is_stmt 1 view .LVU166
 573 0024 4FF49670 		mov	r0, #300
 574 0028 FFF7FEFF 		bl	delay
 575              	.LVL28:
 180:Src/motors.c  **** 	systemReady = true;
 576              		.loc 1 180 2 view .LVU167
 577              		.loc 1 180 14 is_stmt 0 view .LVU168
 578 002c 87F80080 		strb	r8, [r7]
 181:Src/motors.c  **** 	motor_initialized = false;
 579              		.loc 1 181 2 is_stmt 1 view .LVU169
 580              		.loc 1 181 20 is_stmt 0 view .LVU170
 581 0030 3570     		strb	r5, [r6]
 182:Src/motors.c  **** 
 183:Src/motors.c  **** 	motor_value[MOTOR1] = DSHOT_CMD_MOTOR_STOP;
 582              		.loc 1 183 2 is_stmt 1 view .LVU171
 583              		.loc 1 183 22 is_stmt 0 view .LVU172
 584 0032 2580     		strh	r5, [r4]	@ movhi
 184:Src/motors.c  **** 	motor_value[MOTOR2] = DSHOT_CMD_MOTOR_STOP;
 585              		.loc 1 184 2 is_stmt 1 view .LVU173
 586              		.loc 1 184 22 is_stmt 0 view .LVU174
 587 0034 6580     		strh	r5, [r4, #2]	@ movhi
 185:Src/motors.c  **** 	motor_value[MOTOR3] = DSHOT_CMD_MOTOR_STOP;
 588              		.loc 1 185 2 is_stmt 1 view .LVU175
 589              		.loc 1 185 22 is_stmt 0 view .LVU176
 590 0036 A580     		strh	r5, [r4, #4]	@ movhi
 186:Src/motors.c  **** 	motor_value[MOTOR4] = DSHOT_CMD_MOTOR_STOP;
 591              		.loc 1 186 2 is_stmt 1 view .LVU177
 592              		.loc 1 186 22 is_stmt 0 view .LVU178
 593 0038 E580     		strh	r5, [r4, #6]	@ movhi
 187:Src/motors.c  **** }
ARM GAS  /var/folders/9y/n02fl3g16gnf7ppy14xghdy80000gn/T//ccULbvV3.s 			page 15


 594              		.loc 1 187 1 view .LVU179
 595 003a BDE8F081 		pop	{r4, r5, r6, r7, r8, pc}
 596              	.L28:
 597 003e 00BF     		.align	2
 598              	.L27:
 599 0040 00000000 		.word	.LANCHOR0
 600 0044 00000000 		.word	systemReady
 601 0048 00000000 		.word	.LANCHOR1
 602              		.cfi_endproc
 603              	.LFE192:
 605              		.global	motors_mode
 606              		.global	motor_initialized
 607              		.global	motor_value
 608              		.section	.bss.motor_initialized,"aw",%nobits
 609              		.set	.LANCHOR1,. + 0
 612              	motor_initialized:
 613 0000 00       		.space	1
 614              		.section	.bss.motor_value,"aw",%nobits
 615              		.align	2
 616              		.set	.LANCHOR0,. + 0
 619              	motor_value:
 620 0000 00000000 		.space	8
 620      00000000 
 621              		.section	.bss.motors_mode,"aw",%nobits
 622              		.set	.LANCHOR2,. + 0
 625              	motors_mode:
 626 0000 00       		.space	1
 627              		.text
 628              	.Letext0:
 629              		.file 2 "/opt/homebrew/Cellar/arm-none-eabi-gcc/10.3-2021.07/gcc/arm-none-eabi/include/machine/_de
 630              		.file 3 "/opt/homebrew/Cellar/arm-none-eabi-gcc/10.3-2021.07/gcc/arm-none-eabi/include/sys/_stdint
 631              		.file 4 "Src/autodrone32.h"
 632              		.file 5 "Src/drv/drv_dshot.h"
 633              		.file 6 "Src/drv/drv_system.h"
 634              		.file 7 "Src/motors.h"
 635              		.file 8 "/opt/homebrew/Cellar/arm-none-eabi-gcc/10.3-2021.07/gcc/arm-none-eabi/include/stdio.h"
 636              		.file 9 "<built-in>"
ARM GAS  /var/folders/9y/n02fl3g16gnf7ppy14xghdy80000gn/T//ccULbvV3.s 			page 16

