ARM GAS  /var/folders/9y/n02fl3g16gnf7ppy14xghdy80000gn/T//cczDFYba.s 			page 1


   1              		.cpu cortex-m7
   2              		.eabi_attribute 27, 1
   3              		.eabi_attribute 28, 1
   4              		.eabi_attribute 20, 1
   5              		.eabi_attribute 21, 1
   6              		.eabi_attribute 23, 3
   7              		.eabi_attribute 24, 1
   8              		.eabi_attribute 25, 1
   9              		.eabi_attribute 26, 1
  10              		.eabi_attribute 30, 1
  11              		.eabi_attribute 34, 1
  12              		.eabi_attribute 18, 4
  13              		.file	"mpu6000_calibration.c"
  14              		.text
  15              	.Ltext0:
  16              		.cfi_sections	.debug_frame
  17              		.section	.rodata.mpu6000Calibration.str1.4,"aMS",%progbits,1
  18              		.align	2
  19              	.LC0:
  20 0000 0A4D5055 		.ascii	"\012MPU6000 Calibration:\000"
  20      36303030 
  20      2043616C 
  20      69627261 
  20      74696F6E 
  21 0016 0000     		.align	2
  22              	.LC1:
  23 0018 0A426567 		.ascii	"\012Begin 1st MPU6000 Measurements...\000"
  23      696E2031 
  23      7374204D 
  23      50553630 
  23      3030204D 
  24              		.global	__aeabi_f2d
  25 003b 00       		.align	2
  26              	.LC2:
  27 003c 0A477972 		.ascii	"\012Gyro Temperature Reading: %6.2f\000"
  27      6F205465 
  27      6D706572 
  27      61747572 
  27      65205265 
  28 005d 000000   		.align	2
  29              	.LC3:
  30 0060 0A0A456E 		.ascii	"\012\012End 1st MPU6000 Measurements\000"
  30      64203173 
  30      74204D50 
  30      55363030 
  30      30204D65 
  31 007f 00       		.align	2
  32              	.LC4:
  33 0080 0A576169 		.ascii	"\012Waiting for 1 second for MPU6000 temp to rise.."
  33      74696E67 
  33      20666F72 
  33      20312073 
  33      65636F6E 
  34 00b0 2E00     		.ascii	".\000"
  35 00b2 0000     		.align	2
  36              	.LC5:
  37 00b4 0A426567 		.ascii	"\012Begin 2nd MPU6000 Measurements...\000"
ARM GAS  /var/folders/9y/n02fl3g16gnf7ppy14xghdy80000gn/T//cczDFYba.s 			page 2


  37      696E2032 
  37      6E64204D 
  37      50553630 
  37      3030204D 
  38 00d7 00       		.align	2
  39              	.LC6:
  40 00d8 0A0A456E 		.ascii	"\012\012End 2nd MPU6000 Measurements\000"
  40      6420326E 
  40      64204D50 
  40      55363030 
  40      30204D65 
  41 00f7 00       		.align	2
  42              	.LC7:
  43 00f8 0A4D5055 		.ascii	"\012MPU6000 Calibration Complete.\000"
  43      36303030 
  43      2043616C 
  43      69627261 
  43      74696F6E 
  44              		.section	.text.mpu6000Calibration,"ax",%progbits
  45              		.align	1
  46              		.global	mpu6000Calibration
  47              		.arch armv7e-m
  48              		.syntax unified
  49              		.thumb
  50              		.thumb_func
  51              		.fpu fpv5-sp-d16
  53              	mpu6000Calibration:
  54              	.LFB187:
  55              		.file 1 "Src/sensors/mpu6000_calibration.c"
   1:Src/sensors/mpu6000_calibration.c **** /** @file 		mpu6000_calibration.c
   2:Src/sensors/mpu6000_calibration.c ****  *  @brief
   3:Src/sensors/mpu6000_calibration.c ****  *  	This file is used to calibrate IMU.
   4:Src/sensors/mpu6000_calibration.c ****  *
   5:Src/sensors/mpu6000_calibration.c ****  *  @author 	Jeremy Wolfe
   6:Src/sensors/mpu6000_calibration.c ****  *  @date 		06 MAR 2022
   7:Src/sensors/mpu6000_calibration.c ****  */
   8:Src/sensors/mpu6000_calibration.c **** 
   9:Src/sensors/mpu6000_calibration.c **** /* Includes */
  10:Src/sensors/mpu6000_calibration.c **** #include "board.h"
  11:Src/sensors/mpu6000_calibration.c **** 
  12:Src/sensors/mpu6000_calibration.c **** /** @brief Calibrates the IMU.
  13:Src/sensors/mpu6000_calibration.c ****  *
  14:Src/sensors/mpu6000_calibration.c ****  *  @return Void.
  15:Src/sensors/mpu6000_calibration.c ****  */
  16:Src/sensors/mpu6000_calibration.c **** void
  17:Src/sensors/mpu6000_calibration.c **** mpu6000Calibration(void)
  18:Src/sensors/mpu6000_calibration.c **** {
  56              		.loc 1 18 1 view -0
  57              		.cfi_startproc
  58              		@ args = 0, pretend = 0, frame = 48
  59              		@ frame_needed = 0, uses_anonymous_args = 0
  60 0000 10B5     		push	{r4, lr}
  61              		.cfi_def_cfa_offset 8
  62              		.cfi_offset 4, -8
  63              		.cfi_offset 14, -4
  64 0002 2DED108B 		vpush.64	{d8, d9, d10, d11, d12, d13, d14, d15}
  65              		.cfi_def_cfa_offset 72
ARM GAS  /var/folders/9y/n02fl3g16gnf7ppy14xghdy80000gn/T//cczDFYba.s 			page 3


  66              		.cfi_offset 80, -72
  67              		.cfi_offset 81, -68
  68              		.cfi_offset 82, -64
  69              		.cfi_offset 83, -60
  70              		.cfi_offset 84, -56
  71              		.cfi_offset 85, -52
  72              		.cfi_offset 86, -48
  73              		.cfi_offset 87, -44
  74              		.cfi_offset 88, -40
  75              		.cfi_offset 89, -36
  76              		.cfi_offset 90, -32
  77              		.cfi_offset 91, -28
  78              		.cfi_offset 92, -24
  79              		.cfi_offset 93, -20
  80              		.cfi_offset 94, -16
  81              		.cfi_offset 95, -12
  82 0006 8CB0     		sub	sp, sp, #48
  83              		.cfi_def_cfa_offset 120
  19:Src/sensors/mpu6000_calibration.c ****     uint16_t sampleRate      = 100;
  84              		.loc 1 19 5 view .LVU1
  85              	.LVL0:
  20:Src/sensors/mpu6000_calibration.c ****     uint16_t numberOfSamples = 2000;
  86              		.loc 1 20 5 view .LVU2
  21:Src/sensors/mpu6000_calibration.c **** 
  22:Src/sensors/mpu6000_calibration.c ****     float accelBias1[3]       = { 0.0f, 0.0f, 0.0f };
  87              		.loc 1 22 5 view .LVU3
  88              		.loc 1 22 11 is_stmt 0 view .LVU4
  89 0008 9FEDE38A 		vldr.32	s16, .L7
  90 000c 8DED098A 		vstr.32	s16, [sp, #36]
  91 0010 8DED0A8A 		vstr.32	s16, [sp, #40]
  92 0014 8DED0B8A 		vstr.32	s16, [sp, #44]
  23:Src/sensors/mpu6000_calibration.c ****     float gyroBias1[3]        = { 0.0f, 0.0f, 0.0f };
  93              		.loc 1 23 5 is_stmt 1 view .LVU5
  94              		.loc 1 23 11 is_stmt 0 view .LVU6
  95 0018 8DED068A 		vstr.32	s16, [sp, #24]
  96 001c 8DED078A 		vstr.32	s16, [sp, #28]
  97 0020 8DED088A 		vstr.32	s16, [sp, #32]
  24:Src/sensors/mpu6000_calibration.c ****     float mpu6000Temperature1 = 0.0f;
  98              		.loc 1 24 5 is_stmt 1 view .LVU7
  99              	.LVL1:
  25:Src/sensors/mpu6000_calibration.c **** 
  26:Src/sensors/mpu6000_calibration.c ****     float accelBias2[3]       = { 0.0f, 0.0f, 0.0f };
 100              		.loc 1 26 5 view .LVU8
 101              		.loc 1 26 11 is_stmt 0 view .LVU9
 102 0024 8DED038A 		vstr.32	s16, [sp, #12]
 103 0028 8DED048A 		vstr.32	s16, [sp, #16]
 104 002c 8DED058A 		vstr.32	s16, [sp, #20]
  27:Src/sensors/mpu6000_calibration.c ****     float gyroBias2[3]        = { 0.0f, 0.0f, 0.0f };
 105              		.loc 1 27 5 is_stmt 1 view .LVU10
 106              		.loc 1 27 11 is_stmt 0 view .LVU11
 107 0030 8DED008A 		vstr.32	s16, [sp]
 108 0034 8DED018A 		vstr.32	s16, [sp, #4]
 109 0038 8DED028A 		vstr.32	s16, [sp, #8]
  28:Src/sensors/mpu6000_calibration.c ****     float mpu6000Temperature2 = 0.0f;
 110              		.loc 1 28 5 is_stmt 1 view .LVU12
 111              	.LVL2:
  29:Src/sensors/mpu6000_calibration.c **** 
ARM GAS  /var/folders/9y/n02fl3g16gnf7ppy14xghdy80000gn/T//cczDFYba.s 			page 4


  30:Src/sensors/mpu6000_calibration.c ****     eepromConfig.accelScaleFactorMPU[XAXIS] = 0.004788403f;  // (1/8192) * 9.8065  (8192 LSB = 1 G)
 112              		.loc 1 30 5 view .LVU13
 113              		.loc 1 30 45 is_stmt 0 view .LVU14
 114 003c D74B     		ldr	r3, .L7+4
 115 003e D84A     		ldr	r2, .L7+8
 116 0040 1A61     		str	r2, [r3, #16]	@ float
  31:Src/sensors/mpu6000_calibration.c ****     eepromConfig.accelScaleFactorMPU[YAXIS] = 0.004788403f;  // (1/8192) * 9.8065  (8192 LSB = 1 G)
 117              		.loc 1 31 5 is_stmt 1 view .LVU15
 118              		.loc 1 31 45 is_stmt 0 view .LVU16
 119 0042 5A61     		str	r2, [r3, #20]	@ float
  32:Src/sensors/mpu6000_calibration.c ****     eepromConfig.accelScaleFactorMPU[ZAXIS] = 0.004788403f;  // (1/8192) * 9.8065  (8192 LSB = 1 G)
 120              		.loc 1 32 5 is_stmt 1 view .LVU17
 121              		.loc 1 32 45 is_stmt 0 view .LVU18
 122 0044 9A61     		str	r2, [r3, #24]	@ float
  33:Src/sensors/mpu6000_calibration.c **** 
  34:Src/sensors/mpu6000_calibration.c ****     uint16_t index;
 123              		.loc 1 34 5 is_stmt 1 view .LVU19
  35:Src/sensors/mpu6000_calibration.c **** 
  36:Src/sensors/mpu6000_calibration.c ****     mpu6000Calibrating = true;
 124              		.loc 1 36 5 view .LVU20
 125              		.loc 1 36 24 is_stmt 0 view .LVU21
 126 0046 D74B     		ldr	r3, .L7+12
 127 0048 0122     		movs	r2, #1
 128 004a 1A70     		strb	r2, [r3]
  37:Src/sensors/mpu6000_calibration.c **** 
  38:Src/sensors/mpu6000_calibration.c ****     printf("\nMPU6000 Calibration:\n");
 129              		.loc 1 38 5 is_stmt 1 view .LVU22
 130 004c D648     		ldr	r0, .L7+16
 131 004e FFF7FEFF 		bl	puts
 132              	.LVL3:
  39:Src/sensors/mpu6000_calibration.c **** 
  40:Src/sensors/mpu6000_calibration.c ****     ///////////////////////////////////
  41:Src/sensors/mpu6000_calibration.c ****     // Get samples at temperature1
  42:Src/sensors/mpu6000_calibration.c ****     ///////////////////////////////////
  43:Src/sensors/mpu6000_calibration.c **** 
  44:Src/sensors/mpu6000_calibration.c ****     printf("\nBegin 1st MPU6000 Measurements...\n");
 133              		.loc 1 44 5 view .LVU23
 134 0052 D648     		ldr	r0, .L7+20
 135 0054 FFF7FEFF 		bl	puts
 136              	.LVL4:
  45:Src/sensors/mpu6000_calibration.c ****     for (index = 0; index < numberOfSamples; index++)
 137              		.loc 1 45 5 view .LVU24
 138              		.loc 1 45 16 is_stmt 0 view .LVU25
 139 0058 0024     		movs	r4, #0
 140              		.loc 1 45 5 view .LVU26
 141 005a 64E0     		b	.L2
 142              	.LVL5:
 143              	.L3:
  46:Src/sensors/mpu6000_calibration.c ****     {
  47:Src/sensors/mpu6000_calibration.c ****         readMPU6000();
 144              		.loc 1 47 9 is_stmt 1 discriminator 3 view .LVU27
 145 005c FFF7FEFF 		bl	readMPU6000
 146              	.LVL6:
  48:Src/sensors/mpu6000_calibration.c **** 
  49:Src/sensors/mpu6000_calibration.c ****         rawAccel[ZAXIS].value = rawAccel[ZAXIS].value - 2048;
 147              		.loc 1 49 9 discriminator 3 view .LVU28
 148              		.loc 1 49 48 is_stmt 0 discriminator 3 view .LVU29
ARM GAS  /var/folders/9y/n02fl3g16gnf7ppy14xghdy80000gn/T//cczDFYba.s 			page 5


 149 0060 D34A     		ldr	r2, .L7+24
 150 0062 9388     		ldrh	r3, [r2, #4]
 151              		.loc 1 49 55 discriminator 3 view .LVU30
 152 0064 A3F50063 		sub	r3, r3, #2048
 153 0068 1BB2     		sxth	r3, r3
 154              		.loc 1 49 31 discriminator 3 view .LVU31
 155 006a 9380     		strh	r3, [r2, #4]	@ movhi
  50:Src/sensors/mpu6000_calibration.c **** 
  51:Src/sensors/mpu6000_calibration.c ****         accelBias1[XAXIS]    += rawAccel[XAXIS].value;
 156              		.loc 1 51 9 is_stmt 1 discriminator 3 view .LVU32
 157              		.loc 1 51 48 is_stmt 0 discriminator 3 view .LVU33
 158 006c B2F90010 		ldrsh	r1, [r2]
 159 0070 07EE901A 		vmov	s15, r1	@ int
 160              		.loc 1 51 30 discriminator 3 view .LVU34
 161 0074 B8EEE77A 		vcvt.f32.s32	s14, s15
 162 0078 DDED097A 		vldr.32	s15, [sp, #36]
 163 007c 77EE877A 		vadd.f32	s15, s15, s14
 164 0080 CDED097A 		vstr.32	s15, [sp, #36]
  52:Src/sensors/mpu6000_calibration.c ****         accelBias1[YAXIS]    += rawAccel[YAXIS].value;
 165              		.loc 1 52 9 is_stmt 1 discriminator 3 view .LVU35
 166              		.loc 1 52 48 is_stmt 0 discriminator 3 view .LVU36
 167 0084 B2F90220 		ldrsh	r2, [r2, #2]
 168 0088 07EE902A 		vmov	s15, r2	@ int
 169              		.loc 1 52 30 discriminator 3 view .LVU37
 170 008c B8EEE77A 		vcvt.f32.s32	s14, s15
 171 0090 DDED0A7A 		vldr.32	s15, [sp, #40]
 172 0094 77EE877A 		vadd.f32	s15, s15, s14
 173 0098 CDED0A7A 		vstr.32	s15, [sp, #40]
  53:Src/sensors/mpu6000_calibration.c ****         accelBias1[ZAXIS]    += rawAccel[ZAXIS].value;
 174              		.loc 1 53 9 is_stmt 1 discriminator 3 view .LVU38
 175              		.loc 1 53 30 is_stmt 0 discriminator 3 view .LVU39
 176 009c 07EE903A 		vmov	s15, r3	@ int
 177 00a0 F8EEE77A 		vcvt.f32.s32	s15, s15
 178 00a4 9DED0B7A 		vldr.32	s14, [sp, #44]
 179 00a8 77EE277A 		vadd.f32	s15, s14, s15
 180 00ac CDED0B7A 		vstr.32	s15, [sp, #44]
  54:Src/sensors/mpu6000_calibration.c ****         gyroBias1[ROLL ]     += rawGyro[ROLL ].value;
 181              		.loc 1 54 9 is_stmt 1 discriminator 3 view .LVU40
 182              		.loc 1 54 47 is_stmt 0 discriminator 3 view .LVU41
 183 00b0 C04B     		ldr	r3, .L7+28
 184 00b2 B3F90020 		ldrsh	r2, [r3]
 185 00b6 07EE902A 		vmov	s15, r2	@ int
 186              		.loc 1 54 30 discriminator 3 view .LVU42
 187 00ba B8EEE77A 		vcvt.f32.s32	s14, s15
 188 00be DDED067A 		vldr.32	s15, [sp, #24]
 189 00c2 77EE877A 		vadd.f32	s15, s15, s14
 190 00c6 CDED067A 		vstr.32	s15, [sp, #24]
  55:Src/sensors/mpu6000_calibration.c ****         gyroBias1[PITCH]     += rawGyro[PITCH].value;
 191              		.loc 1 55 9 is_stmt 1 discriminator 3 view .LVU43
 192              		.loc 1 55 47 is_stmt 0 discriminator 3 view .LVU44
 193 00ca B3F90220 		ldrsh	r2, [r3, #2]
 194 00ce 07EE902A 		vmov	s15, r2	@ int
 195              		.loc 1 55 30 discriminator 3 view .LVU45
 196 00d2 B8EEE77A 		vcvt.f32.s32	s14, s15
 197 00d6 DDED077A 		vldr.32	s15, [sp, #28]
 198 00da 77EE877A 		vadd.f32	s15, s15, s14
 199 00de CDED077A 		vstr.32	s15, [sp, #28]
ARM GAS  /var/folders/9y/n02fl3g16gnf7ppy14xghdy80000gn/T//cczDFYba.s 			page 6


  56:Src/sensors/mpu6000_calibration.c ****         gyroBias1[YAW  ]     += rawGyro[YAW  ].value;
 200              		.loc 1 56 9 is_stmt 1 discriminator 3 view .LVU46
 201              		.loc 1 56 47 is_stmt 0 discriminator 3 view .LVU47
 202 00e2 B3F90430 		ldrsh	r3, [r3, #4]
 203 00e6 07EE903A 		vmov	s15, r3	@ int
 204              		.loc 1 56 30 discriminator 3 view .LVU48
 205 00ea B8EEE77A 		vcvt.f32.s32	s14, s15
 206 00ee DDED087A 		vldr.32	s15, [sp, #32]
 207 00f2 77EE877A 		vadd.f32	s15, s15, s14
 208 00f6 CDED087A 		vstr.32	s15, [sp, #32]
  57:Src/sensors/mpu6000_calibration.c ****         mpu6000Temperature1  += (float) (rawMPU6000Temperature.value) / 340.0f + 35.0f;
 209              		.loc 1 57 9 is_stmt 1 discriminator 3 view .LVU49
 210              		.loc 1 57 63 is_stmt 0 discriminator 3 view .LVU50
 211 00fa AF4B     		ldr	r3, .L7+32
 212 00fc B3F90030 		ldrsh	r3, [r3]
 213 0100 07EE103A 		vmov	s14, r3	@ int
 214              		.loc 1 57 33 discriminator 3 view .LVU51
 215 0104 B8EEC77A 		vcvt.f32.s32	s14, s14
 216              		.loc 1 57 71 discriminator 3 view .LVU52
 217 0108 DFEDAC6A 		vldr.32	s13, .L7+36
 218 010c C7EE267A 		vdiv.f32	s15, s14, s13
 219              		.loc 1 57 80 discriminator 3 view .LVU53
 220 0110 9FEDAB7A 		vldr.32	s14, .L7+40
 221 0114 77EE877A 		vadd.f32	s15, s15, s14
 222              		.loc 1 57 30 discriminator 3 view .LVU54
 223 0118 38EE278A 		vadd.f32	s16, s16, s15
 224              	.LVL7:
  58:Src/sensors/mpu6000_calibration.c **** 
  59:Src/sensors/mpu6000_calibration.c ****         delayMicroseconds(sampleRate);
 225              		.loc 1 59 9 is_stmt 1 discriminator 3 view .LVU55
 226 011c 6420     		movs	r0, #100
 227 011e FFF7FEFF 		bl	delayMicroseconds
 228              	.LVL8:
  45:Src/sensors/mpu6000_calibration.c ****     {
 229              		.loc 1 45 46 discriminator 3 view .LVU56
  45:Src/sensors/mpu6000_calibration.c ****     {
 230              		.loc 1 45 51 is_stmt 0 discriminator 3 view .LVU57
 231 0122 0134     		adds	r4, r4, #1
 232              	.LVL9:
  45:Src/sensors/mpu6000_calibration.c ****     {
 233              		.loc 1 45 51 discriminator 3 view .LVU58
 234 0124 A4B2     		uxth	r4, r4
 235              	.LVL10:
 236              	.L2:
  45:Src/sensors/mpu6000_calibration.c ****     {
 237              		.loc 1 45 21 is_stmt 1 discriminator 1 view .LVU59
  45:Src/sensors/mpu6000_calibration.c ****     {
 238              		.loc 1 45 5 is_stmt 0 discriminator 1 view .LVU60
 239 0126 B4F5FA6F 		cmp	r4, #2000
 240 012a 97D3     		bcc	.L3
  60:Src/sensors/mpu6000_calibration.c ****     }
  61:Src/sensors/mpu6000_calibration.c **** 
  62:Src/sensors/mpu6000_calibration.c ****     accelBias1[XAXIS]   /= (float) numberOfSamples;
 241              		.loc 1 62 5 is_stmt 1 view .LVU61
 242              		.loc 1 62 25 is_stmt 0 view .LVU62
 243 012c DFEDA57A 		vldr.32	s15, .L7+44
 244 0130 9DED097A 		vldr.32	s14, [sp, #36]
ARM GAS  /var/folders/9y/n02fl3g16gnf7ppy14xghdy80000gn/T//cczDFYba.s 			page 7


 245 0134 C7EE27BA 		vdiv.f32	s23, s14, s15
 246 0138 CDED09BA 		vstr.32	s23, [sp, #36]
  63:Src/sensors/mpu6000_calibration.c ****     accelBias1[YAXIS]   /= (float) numberOfSamples;
 247              		.loc 1 63 5 is_stmt 1 view .LVU63
 248              		.loc 1 63 25 is_stmt 0 view .LVU64
 249 013c 9DED0A7A 		vldr.32	s14, [sp, #40]
 250 0140 87EE27BA 		vdiv.f32	s22, s14, s15
 251 0144 8DED0ABA 		vstr.32	s22, [sp, #40]
  64:Src/sensors/mpu6000_calibration.c ****     accelBias1[ZAXIS]   /= (float) numberOfSamples;
 252              		.loc 1 64 5 is_stmt 1 view .LVU65
 253              		.loc 1 64 25 is_stmt 0 view .LVU66
 254 0148 9DED0B7A 		vldr.32	s14, [sp, #44]
 255 014c C7EE27AA 		vdiv.f32	s21, s14, s15
 256 0150 CDED0BAA 		vstr.32	s21, [sp, #44]
  65:Src/sensors/mpu6000_calibration.c ****     gyroBias1[ROLL ]    /= (float) numberOfSamples;
 257              		.loc 1 65 5 is_stmt 1 view .LVU67
 258              		.loc 1 65 25 is_stmt 0 view .LVU68
 259 0154 9DED067A 		vldr.32	s14, [sp, #24]
 260 0158 87EE27AA 		vdiv.f32	s20, s14, s15
 261 015c 8DED06AA 		vstr.32	s20, [sp, #24]
  66:Src/sensors/mpu6000_calibration.c ****     gyroBias1[PITCH]    /= (float) numberOfSamples;
 262              		.loc 1 66 5 is_stmt 1 view .LVU69
 263              		.loc 1 66 25 is_stmt 0 view .LVU70
 264 0160 9DED077A 		vldr.32	s14, [sp, #28]
 265 0164 C7EE279A 		vdiv.f32	s19, s14, s15
 266 0168 CDED079A 		vstr.32	s19, [sp, #28]
  67:Src/sensors/mpu6000_calibration.c ****     gyroBias1[YAW  ]    /= (float) numberOfSamples;
 267              		.loc 1 67 5 is_stmt 1 view .LVU71
 268              		.loc 1 67 25 is_stmt 0 view .LVU72
 269 016c 9DED087A 		vldr.32	s14, [sp, #32]
 270 0170 87EE279A 		vdiv.f32	s18, s14, s15
 271 0174 8DED089A 		vstr.32	s18, [sp, #32]
  68:Src/sensors/mpu6000_calibration.c ****     mpu6000Temperature1 /= (float) numberOfSamples;
 272              		.loc 1 68 5 is_stmt 1 view .LVU73
 273              		.loc 1 68 25 is_stmt 0 view .LVU74
 274 0178 C8EE278A 		vdiv.f32	s17, s16, s15
 275              	.LVL11:
  69:Src/sensors/mpu6000_calibration.c **** 
  70:Src/sensors/mpu6000_calibration.c ****     printf("\nGyro Temperature Reading: %6.2f", mpu6000Temperature1);
 276              		.loc 1 70 5 is_stmt 1 view .LVU75
 277 017c 18EE900A 		vmov	r0, s17
 278 0180 FFF7FEFF 		bl	__aeabi_f2d
 279              	.LVL12:
 280 0184 0246     		mov	r2, r0
 281 0186 0B46     		mov	r3, r1
 282 0188 8F48     		ldr	r0, .L7+48
 283 018a FFF7FEFF 		bl	printf
 284              	.LVL13:
  71:Src/sensors/mpu6000_calibration.c **** 
  72:Src/sensors/mpu6000_calibration.c ****     printf("\n\nEnd 1st MPU6000 Measurements\n");
 285              		.loc 1 72 5 view .LVU76
 286 018e 8F48     		ldr	r0, .L7+52
 287 0190 FFF7FEFF 		bl	puts
 288              	.LVL14:
  73:Src/sensors/mpu6000_calibration.c **** 
  74:Src/sensors/mpu6000_calibration.c ****     ///////////////////////////////////
  75:Src/sensors/mpu6000_calibration.c ****     // Time delay for temperature
ARM GAS  /var/folders/9y/n02fl3g16gnf7ppy14xghdy80000gn/T//cczDFYba.s 			page 8


  76:Src/sensors/mpu6000_calibration.c ****     // Stabilization
  77:Src/sensors/mpu6000_calibration.c ****     ///////////////////////////////////
  78:Src/sensors/mpu6000_calibration.c **** 
  79:Src/sensors/mpu6000_calibration.c ****     printf("\nWaiting for 1 second for MPU6000 temp to rise...\n");
 289              		.loc 1 79 5 view .LVU77
 290 0194 8E48     		ldr	r0, .L7+56
 291 0196 FFF7FEFF 		bl	puts
 292              	.LVL15:
  80:Src/sensors/mpu6000_calibration.c ****     delay(1000);    // Number of mSec in 10 minutes
 293              		.loc 1 80 5 view .LVU78
 294 019a 4FF47A70 		mov	r0, #1000
 295 019e FFF7FEFF 		bl	delay
 296              	.LVL16:
  81:Src/sensors/mpu6000_calibration.c **** 
  82:Src/sensors/mpu6000_calibration.c ****     ///////////////////////////////////
  83:Src/sensors/mpu6000_calibration.c ****     // Get samples at temperature2
  84:Src/sensors/mpu6000_calibration.c ****     ///////////////////////////////////
  85:Src/sensors/mpu6000_calibration.c **** 
  86:Src/sensors/mpu6000_calibration.c ****     printf("\nBegin 2nd MPU6000 Measurements...\n");
 297              		.loc 1 86 5 view .LVU79
 298 01a2 8C48     		ldr	r0, .L7+60
 299 01a4 FFF7FEFF 		bl	puts
 300              	.LVL17:
  87:Src/sensors/mpu6000_calibration.c ****     for (index = 0; index < numberOfSamples; index++)
 301              		.loc 1 87 5 view .LVU80
 302              		.loc 1 87 16 is_stmt 0 view .LVU81
 303 01a8 0024     		movs	r4, #0
  28:Src/sensors/mpu6000_calibration.c **** 
 304              		.loc 1 28 11 view .LVU82
 305 01aa 9FED7B8A 		vldr.32	s16, .L7
 306              		.loc 1 87 5 view .LVU83
 307 01ae 64E0     		b	.L4
 308              	.LVL18:
 309              	.L5:
  88:Src/sensors/mpu6000_calibration.c ****     {
  89:Src/sensors/mpu6000_calibration.c ****         readMPU6000();
 310              		.loc 1 89 9 is_stmt 1 discriminator 3 view .LVU84
 311 01b0 FFF7FEFF 		bl	readMPU6000
 312              	.LVL19:
  90:Src/sensors/mpu6000_calibration.c **** 
  91:Src/sensors/mpu6000_calibration.c ****         rawAccel[ZAXIS].value = rawAccel[ZAXIS].value - 2048;
 313              		.loc 1 91 9 discriminator 3 view .LVU85
 314              		.loc 1 91 48 is_stmt 0 discriminator 3 view .LVU86
 315 01b4 7E4A     		ldr	r2, .L7+24
 316 01b6 9388     		ldrh	r3, [r2, #4]
 317              		.loc 1 91 55 discriminator 3 view .LVU87
 318 01b8 A3F50063 		sub	r3, r3, #2048
 319 01bc 1BB2     		sxth	r3, r3
 320              		.loc 1 91 31 discriminator 3 view .LVU88
 321 01be 9380     		strh	r3, [r2, #4]	@ movhi
  92:Src/sensors/mpu6000_calibration.c **** 
  93:Src/sensors/mpu6000_calibration.c ****         accelBias2[XAXIS]    += rawAccel[XAXIS].value;
 322              		.loc 1 93 9 is_stmt 1 discriminator 3 view .LVU89
 323              		.loc 1 93 48 is_stmt 0 discriminator 3 view .LVU90
 324 01c0 B2F90010 		ldrsh	r1, [r2]
 325 01c4 07EE901A 		vmov	s15, r1	@ int
 326              		.loc 1 93 30 discriminator 3 view .LVU91
ARM GAS  /var/folders/9y/n02fl3g16gnf7ppy14xghdy80000gn/T//cczDFYba.s 			page 9


 327 01c8 B8EEE77A 		vcvt.f32.s32	s14, s15
 328 01cc DDED037A 		vldr.32	s15, [sp, #12]
 329 01d0 77EE877A 		vadd.f32	s15, s15, s14
 330 01d4 CDED037A 		vstr.32	s15, [sp, #12]
  94:Src/sensors/mpu6000_calibration.c ****         accelBias2[YAXIS]    += rawAccel[YAXIS].value;
 331              		.loc 1 94 9 is_stmt 1 discriminator 3 view .LVU92
 332              		.loc 1 94 48 is_stmt 0 discriminator 3 view .LVU93
 333 01d8 B2F90220 		ldrsh	r2, [r2, #2]
 334 01dc 07EE902A 		vmov	s15, r2	@ int
 335              		.loc 1 94 30 discriminator 3 view .LVU94
 336 01e0 B8EEE77A 		vcvt.f32.s32	s14, s15
 337 01e4 DDED047A 		vldr.32	s15, [sp, #16]
 338 01e8 77EE877A 		vadd.f32	s15, s15, s14
 339 01ec CDED047A 		vstr.32	s15, [sp, #16]
  95:Src/sensors/mpu6000_calibration.c ****         accelBias2[ZAXIS]    += rawAccel[ZAXIS].value;
 340              		.loc 1 95 9 is_stmt 1 discriminator 3 view .LVU95
 341              		.loc 1 95 30 is_stmt 0 discriminator 3 view .LVU96
 342 01f0 07EE903A 		vmov	s15, r3	@ int
 343 01f4 F8EEE77A 		vcvt.f32.s32	s15, s15
 344 01f8 9DED057A 		vldr.32	s14, [sp, #20]
 345 01fc 77EE277A 		vadd.f32	s15, s14, s15
 346 0200 CDED057A 		vstr.32	s15, [sp, #20]
  96:Src/sensors/mpu6000_calibration.c ****         gyroBias2[ROLL ]     += rawGyro[ROLL ].value;
 347              		.loc 1 96 9 is_stmt 1 discriminator 3 view .LVU97
 348              		.loc 1 96 47 is_stmt 0 discriminator 3 view .LVU98
 349 0204 6B4B     		ldr	r3, .L7+28
 350 0206 B3F90020 		ldrsh	r2, [r3]
 351 020a 07EE902A 		vmov	s15, r2	@ int
 352              		.loc 1 96 30 discriminator 3 view .LVU99
 353 020e B8EEE77A 		vcvt.f32.s32	s14, s15
 354 0212 DDED007A 		vldr.32	s15, [sp]
 355 0216 77EE877A 		vadd.f32	s15, s15, s14
 356 021a CDED007A 		vstr.32	s15, [sp]
  97:Src/sensors/mpu6000_calibration.c ****         gyroBias2[PITCH]     += rawGyro[PITCH].value;
 357              		.loc 1 97 9 is_stmt 1 discriminator 3 view .LVU100
 358              		.loc 1 97 47 is_stmt 0 discriminator 3 view .LVU101
 359 021e B3F90220 		ldrsh	r2, [r3, #2]
 360 0222 07EE902A 		vmov	s15, r2	@ int
 361              		.loc 1 97 30 discriminator 3 view .LVU102
 362 0226 B8EEE77A 		vcvt.f32.s32	s14, s15
 363 022a DDED017A 		vldr.32	s15, [sp, #4]
 364 022e 77EE877A 		vadd.f32	s15, s15, s14
 365 0232 CDED017A 		vstr.32	s15, [sp, #4]
  98:Src/sensors/mpu6000_calibration.c ****         gyroBias2[YAW  ]     += rawGyro[YAW  ].value;
 366              		.loc 1 98 9 is_stmt 1 discriminator 3 view .LVU103
 367              		.loc 1 98 47 is_stmt 0 discriminator 3 view .LVU104
 368 0236 B3F90430 		ldrsh	r3, [r3, #4]
 369 023a 07EE903A 		vmov	s15, r3	@ int
 370              		.loc 1 98 30 discriminator 3 view .LVU105
 371 023e B8EEE77A 		vcvt.f32.s32	s14, s15
 372 0242 DDED027A 		vldr.32	s15, [sp, #8]
 373 0246 77EE877A 		vadd.f32	s15, s15, s14
 374 024a CDED027A 		vstr.32	s15, [sp, #8]
  99:Src/sensors/mpu6000_calibration.c ****         mpu6000Temperature2  += (float)(rawMPU6000Temperature.value) / 340.0f + 35.0f;
 375              		.loc 1 99 9 is_stmt 1 discriminator 3 view .LVU106
 376              		.loc 1 99 62 is_stmt 0 discriminator 3 view .LVU107
 377 024e 5A4B     		ldr	r3, .L7+32
ARM GAS  /var/folders/9y/n02fl3g16gnf7ppy14xghdy80000gn/T//cczDFYba.s 			page 10


 378 0250 B3F90030 		ldrsh	r3, [r3]
 379 0254 07EE103A 		vmov	s14, r3	@ int
 380              		.loc 1 99 33 discriminator 3 view .LVU108
 381 0258 B8EEC77A 		vcvt.f32.s32	s14, s14
 382              		.loc 1 99 70 discriminator 3 view .LVU109
 383 025c DFED576A 		vldr.32	s13, .L7+36
 384 0260 C7EE267A 		vdiv.f32	s15, s14, s13
 385              		.loc 1 99 79 discriminator 3 view .LVU110
 386 0264 9FED567A 		vldr.32	s14, .L7+40
 387 0268 77EE877A 		vadd.f32	s15, s15, s14
 388              		.loc 1 99 30 discriminator 3 view .LVU111
 389 026c 38EE278A 		vadd.f32	s16, s16, s15
 390              	.LVL20:
 100:Src/sensors/mpu6000_calibration.c **** 
 101:Src/sensors/mpu6000_calibration.c ****         delayMicroseconds(sampleRate);
 391              		.loc 1 101 9 is_stmt 1 discriminator 3 view .LVU112
 392 0270 6420     		movs	r0, #100
 393 0272 FFF7FEFF 		bl	delayMicroseconds
 394              	.LVL21:
  87:Src/sensors/mpu6000_calibration.c ****     {
 395              		.loc 1 87 46 discriminator 3 view .LVU113
  87:Src/sensors/mpu6000_calibration.c ****     {
 396              		.loc 1 87 51 is_stmt 0 discriminator 3 view .LVU114
 397 0276 0134     		adds	r4, r4, #1
 398              	.LVL22:
  87:Src/sensors/mpu6000_calibration.c ****     {
 399              		.loc 1 87 51 discriminator 3 view .LVU115
 400 0278 A4B2     		uxth	r4, r4
 401              	.LVL23:
 402              	.L4:
  87:Src/sensors/mpu6000_calibration.c ****     {
 403              		.loc 1 87 21 is_stmt 1 discriminator 1 view .LVU116
  87:Src/sensors/mpu6000_calibration.c ****     {
 404              		.loc 1 87 5 is_stmt 0 discriminator 1 view .LVU117
 405 027a B4F5FA6F 		cmp	r4, #2000
 406 027e 97D3     		bcc	.L5
 102:Src/sensors/mpu6000_calibration.c ****     }
 103:Src/sensors/mpu6000_calibration.c **** 
 104:Src/sensors/mpu6000_calibration.c ****     accelBias2[XAXIS]   /= (float) numberOfSamples;
 407              		.loc 1 104 5 is_stmt 1 view .LVU118
 408              		.loc 1 104 25 is_stmt 0 view .LVU119
 409 0280 DFED507A 		vldr.32	s15, .L7+44
 410 0284 9DED037A 		vldr.32	s14, [sp, #12]
 411 0288 87EE27FA 		vdiv.f32	s30, s14, s15
 412 028c 8DED03FA 		vstr.32	s30, [sp, #12]
 105:Src/sensors/mpu6000_calibration.c ****     accelBias2[YAXIS]   /= (float) numberOfSamples;
 413              		.loc 1 105 5 is_stmt 1 view .LVU120
 414              		.loc 1 105 25 is_stmt 0 view .LVU121
 415 0290 9DED047A 		vldr.32	s14, [sp, #16]
 416 0294 C7EE27EA 		vdiv.f32	s29, s14, s15
 417 0298 CDED04EA 		vstr.32	s29, [sp, #16]
 106:Src/sensors/mpu6000_calibration.c ****     accelBias2[ZAXIS]   /= (float) numberOfSamples;
 418              		.loc 1 106 5 is_stmt 1 view .LVU122
 419              		.loc 1 106 25 is_stmt 0 view .LVU123
 420 029c 9DED057A 		vldr.32	s14, [sp, #20]
 421 02a0 87EE27EA 		vdiv.f32	s28, s14, s15
 422 02a4 8DED05EA 		vstr.32	s28, [sp, #20]
ARM GAS  /var/folders/9y/n02fl3g16gnf7ppy14xghdy80000gn/T//cczDFYba.s 			page 11


 107:Src/sensors/mpu6000_calibration.c ****     gyroBias2[ROLL ]    /= (float) numberOfSamples;
 423              		.loc 1 107 5 is_stmt 1 view .LVU124
 424              		.loc 1 107 25 is_stmt 0 view .LVU125
 425 02a8 9DED007A 		vldr.32	s14, [sp]
 426 02ac C7EE27DA 		vdiv.f32	s27, s14, s15
 427 02b0 CDED00DA 		vstr.32	s27, [sp]
 108:Src/sensors/mpu6000_calibration.c ****     gyroBias2[PITCH]    /= (float) numberOfSamples;
 428              		.loc 1 108 5 is_stmt 1 view .LVU126
 429              		.loc 1 108 25 is_stmt 0 view .LVU127
 430 02b4 9DED017A 		vldr.32	s14, [sp, #4]
 431 02b8 87EE27DA 		vdiv.f32	s26, s14, s15
 432 02bc 8DED01DA 		vstr.32	s26, [sp, #4]
 109:Src/sensors/mpu6000_calibration.c ****     gyroBias2[YAW  ]    /= (float) numberOfSamples;
 433              		.loc 1 109 5 is_stmt 1 view .LVU128
 434              		.loc 1 109 25 is_stmt 0 view .LVU129
 435 02c0 9DED027A 		vldr.32	s14, [sp, #8]
 436 02c4 C7EE27CA 		vdiv.f32	s25, s14, s15
 437 02c8 CDED02CA 		vstr.32	s25, [sp, #8]
 110:Src/sensors/mpu6000_calibration.c ****     mpu6000Temperature2 /= (float) numberOfSamples;
 438              		.loc 1 110 5 is_stmt 1 view .LVU130
 439              		.loc 1 110 25 is_stmt 0 view .LVU131
 440 02cc 88EE27CA 		vdiv.f32	s24, s16, s15
 441              	.LVL24:
 111:Src/sensors/mpu6000_calibration.c **** 
 112:Src/sensors/mpu6000_calibration.c ****     printf("\nGyro Temperature Reading: %6.2f", mpu6000Temperature2);
 442              		.loc 1 112 5 is_stmt 1 view .LVU132
 443 02d0 1CEE100A 		vmov	r0, s24
 444 02d4 FFF7FEFF 		bl	__aeabi_f2d
 445              	.LVL25:
 446 02d8 0246     		mov	r2, r0
 447 02da 0B46     		mov	r3, r1
 448 02dc 3A48     		ldr	r0, .L7+48
 449 02de FFF7FEFF 		bl	printf
 450              	.LVL26:
 113:Src/sensors/mpu6000_calibration.c **** 
 114:Src/sensors/mpu6000_calibration.c ****     printf("\n\nEnd 2nd MPU6000 Measurements\n");
 451              		.loc 1 114 5 view .LVU133
 452 02e2 3D48     		ldr	r0, .L7+64
 453 02e4 FFF7FEFF 		bl	puts
 454              	.LVL27:
 115:Src/sensors/mpu6000_calibration.c **** 
 116:Src/sensors/mpu6000_calibration.c ****     ///////////////////////////////////
 117:Src/sensors/mpu6000_calibration.c **** 
 118:Src/sensors/mpu6000_calibration.c ****     eepromConfig.accelTCBiasSlope[XAXIS]     = (accelBias2[XAXIS] - accelBias1[XAXIS]) / (mpu6000Te
 455              		.loc 1 118 5 view .LVU134
 456              		.loc 1 118 67 is_stmt 0 view .LVU135
 457 02e8 7FEE6BBA 		vsub.f32	s23, s30, s23
 458              		.loc 1 118 111 view .LVU136
 459 02ec 7CEE688A 		vsub.f32	s17, s24, s17
 460              	.LVL28:
 461              		.loc 1 118 88 view .LVU137
 462 02f0 CBEEA86A 		vdiv.f32	s13, s23, s17
 463              		.loc 1 118 46 view .LVU138
 464 02f4 294B     		ldr	r3, .L7+4
 465 02f6 C3ED076A 		vstr.32	s13, [r3, #28]
 119:Src/sensors/mpu6000_calibration.c ****     eepromConfig.accelTCBiasSlope[YAXIS]     = (accelBias2[YAXIS] - accelBias1[YAXIS]) / (mpu6000Te
 466              		.loc 1 119 5 is_stmt 1 view .LVU139
ARM GAS  /var/folders/9y/n02fl3g16gnf7ppy14xghdy80000gn/T//cczDFYba.s 			page 12


 467              		.loc 1 119 67 is_stmt 0 view .LVU140
 468 02fa 3EEECBBA 		vsub.f32	s22, s29, s22
 469              		.loc 1 119 88 view .LVU141
 470 02fe 8BEE287A 		vdiv.f32	s14, s22, s17
 471              		.loc 1 119 46 view .LVU142
 472 0302 83ED087A 		vstr.32	s14, [r3, #32]
 120:Src/sensors/mpu6000_calibration.c ****     eepromConfig.accelTCBiasSlope[ZAXIS]     = (accelBias2[ZAXIS] - accelBias1[ZAXIS]) / (mpu6000Te
 473              		.loc 1 120 5 is_stmt 1 view .LVU143
 474              		.loc 1 120 67 is_stmt 0 view .LVU144
 475 0306 7EEE6AAA 		vsub.f32	s21, s28, s21
 476              		.loc 1 120 88 view .LVU145
 477 030a CAEEA87A 		vdiv.f32	s15, s21, s17
 478              		.loc 1 120 46 view .LVU146
 479 030e C3ED097A 		vstr.32	s15, [r3, #36]
 121:Src/sensors/mpu6000_calibration.c **** 
 122:Src/sensors/mpu6000_calibration.c ****     eepromConfig.accelTCBiasIntercept[XAXIS] = accelBias2[XAXIS] - eepromConfig.accelTCBiasSlope[XA
 480              		.loc 1 122 5 is_stmt 1 view .LVU147
 481              		.loc 1 122 105 is_stmt 0 view .LVU148
 482 0312 66EE8C6A 		vmul.f32	s13, s13, s24
 483              		.loc 1 122 66 view .LVU149
 484 0316 3FEE66FA 		vsub.f32	s30, s30, s13
 485              		.loc 1 122 46 view .LVU150
 486 031a 83ED0AFA 		vstr.32	s30, [r3, #40]
 123:Src/sensors/mpu6000_calibration.c ****     eepromConfig.accelTCBiasIntercept[YAXIS] = accelBias2[YAXIS] - eepromConfig.accelTCBiasSlope[YA
 487              		.loc 1 123 5 is_stmt 1 view .LVU151
 488              		.loc 1 123 105 is_stmt 0 view .LVU152
 489 031e 27EE0C7A 		vmul.f32	s14, s14, s24
 490              		.loc 1 123 66 view .LVU153
 491 0322 7EEEC7EA 		vsub.f32	s29, s29, s14
 492              		.loc 1 123 46 view .LVU154
 493 0326 C3ED0BEA 		vstr.32	s29, [r3, #44]
 124:Src/sensors/mpu6000_calibration.c ****     eepromConfig.accelTCBiasIntercept[ZAXIS] = accelBias2[ZAXIS] - eepromConfig.accelTCBiasSlope[ZA
 494              		.loc 1 124 5 is_stmt 1 view .LVU155
 495              		.loc 1 124 105 is_stmt 0 view .LVU156
 496 032a 67EE8C7A 		vmul.f32	s15, s15, s24
 497              		.loc 1 124 66 view .LVU157
 498 032e 3EEE67EA 		vsub.f32	s28, s28, s15
 499              		.loc 1 124 46 view .LVU158
 500 0332 83ED0CEA 		vstr.32	s28, [r3, #48]
 125:Src/sensors/mpu6000_calibration.c **** 
 126:Src/sensors/mpu6000_calibration.c ****     eepromConfig.gyroTCBiasSlope[ROLL ]      = (gyroBias2[ROLL ] - gyroBias1[ROLL ]) / (mpu6000Temp
 501              		.loc 1 126 5 is_stmt 1 view .LVU159
 502              		.loc 1 126 66 is_stmt 0 view .LVU160
 503 0336 3DEECAAA 		vsub.f32	s20, s27, s20
 504              		.loc 1 126 86 view .LVU161
 505 033a CAEE286A 		vdiv.f32	s13, s20, s17
 506              		.loc 1 126 46 view .LVU162
 507 033e C3ED0D6A 		vstr.32	s13, [r3, #52]
 127:Src/sensors/mpu6000_calibration.c ****     eepromConfig.gyroTCBiasSlope[PITCH]      = (gyroBias2[PITCH] - gyroBias1[PITCH]) / (mpu6000Temp
 508              		.loc 1 127 5 is_stmt 1 view .LVU163
 509              		.loc 1 127 66 is_stmt 0 view .LVU164
 510 0342 7DEE699A 		vsub.f32	s19, s26, s19
 511              		.loc 1 127 86 view .LVU165
 512 0346 89EEA87A 		vdiv.f32	s14, s19, s17
 513              		.loc 1 127 46 view .LVU166
 514 034a 83ED0E7A 		vstr.32	s14, [r3, #56]
 128:Src/sensors/mpu6000_calibration.c ****     eepromConfig.gyroTCBiasSlope[YAW  ]      = (gyroBias2[YAW  ] - gyroBias1[YAW  ]) / (mpu6000Temp
ARM GAS  /var/folders/9y/n02fl3g16gnf7ppy14xghdy80000gn/T//cczDFYba.s 			page 13


 515              		.loc 1 128 5 is_stmt 1 view .LVU167
 516              		.loc 1 128 66 is_stmt 0 view .LVU168
 517 034e 3CEEC99A 		vsub.f32	s18, s25, s18
 518              		.loc 1 128 86 view .LVU169
 519 0352 C9EE287A 		vdiv.f32	s15, s18, s17
 520              		.loc 1 128 46 view .LVU170
 521 0356 C3ED0F7A 		vstr.32	s15, [r3, #60]
 129:Src/sensors/mpu6000_calibration.c **** 
 130:Src/sensors/mpu6000_calibration.c ****     eepromConfig.gyroTCBiasIntercept[ROLL ]  = gyroBias2[ROLL ] - eepromConfig.gyroTCBiasSlope[ROLL
 522              		.loc 1 130 5 is_stmt 1 view .LVU171
 523              		.loc 1 130 103 is_stmt 0 view .LVU172
 524 035a 66EE8C6A 		vmul.f32	s13, s13, s24
 525              		.loc 1 130 65 view .LVU173
 526 035e 7DEEE6DA 		vsub.f32	s27, s27, s13
 527              		.loc 1 130 46 view .LVU174
 528 0362 C3ED10DA 		vstr.32	s27, [r3, #64]
 131:Src/sensors/mpu6000_calibration.c ****     eepromConfig.gyroTCBiasIntercept[PITCH]  = gyroBias2[PITCH] - eepromConfig.gyroTCBiasSlope[PITC
 529              		.loc 1 131 5 is_stmt 1 view .LVU175
 530              		.loc 1 131 103 is_stmt 0 view .LVU176
 531 0366 27EE0C7A 		vmul.f32	s14, s14, s24
 532              		.loc 1 131 65 view .LVU177
 533 036a 3DEE47DA 		vsub.f32	s26, s26, s14
 534              		.loc 1 131 46 view .LVU178
 535 036e 83ED11DA 		vstr.32	s26, [r3, #68]
 132:Src/sensors/mpu6000_calibration.c ****     eepromConfig.gyroTCBiasIntercept[YAW  ]  = gyroBias2[YAW  ] - eepromConfig.gyroTCBiasSlope[YAW 
 536              		.loc 1 132 5 is_stmt 1 view .LVU179
 537              		.loc 1 132 103 is_stmt 0 view .LVU180
 538 0372 67EE8C7A 		vmul.f32	s15, s15, s24
 539              		.loc 1 132 65 view .LVU181
 540 0376 7CEEE7CA 		vsub.f32	s25, s25, s15
 541              		.loc 1 132 46 view .LVU182
 542 037a C3ED12CA 		vstr.32	s25, [r3, #72]
 133:Src/sensors/mpu6000_calibration.c **** 
 134:Src/sensors/mpu6000_calibration.c ****     ///////////////////////////////////
 135:Src/sensors/mpu6000_calibration.c **** 
 136:Src/sensors/mpu6000_calibration.c ****     printf("\nMPU6000 Calibration Complete.\n");
 543              		.loc 1 136 5 is_stmt 1 view .LVU183
 544 037e 1748     		ldr	r0, .L7+68
 545 0380 FFF7FEFF 		bl	puts
 546              	.LVL29:
 137:Src/sensors/mpu6000_calibration.c **** 
 138:Src/sensors/mpu6000_calibration.c ****     writeEEPROM();
 547              		.loc 1 138 5 view .LVU184
 548 0384 FFF7FEFF 		bl	writeEEPROM
 549              	.LVL30:
 139:Src/sensors/mpu6000_calibration.c **** 
 140:Src/sensors/mpu6000_calibration.c ****     mpu6000Calibrating = false;
 550              		.loc 1 140 5 view .LVU185
 551              		.loc 1 140 24 is_stmt 0 view .LVU186
 552 0388 064B     		ldr	r3, .L7+12
 553 038a 0022     		movs	r2, #0
 554 038c 1A70     		strb	r2, [r3]
 141:Src/sensors/mpu6000_calibration.c **** }
 555              		.loc 1 141 1 view .LVU187
 556 038e 0CB0     		add	sp, sp, #48
 557              		.cfi_def_cfa_offset 72
 558              		@ sp needed
ARM GAS  /var/folders/9y/n02fl3g16gnf7ppy14xghdy80000gn/T//cczDFYba.s 			page 14


 559 0390 BDEC108B 		vldm	sp!, {d8-d15}
 560              		.cfi_restore 94
 561              		.cfi_restore 95
 562              		.cfi_restore 92
 563              		.cfi_restore 93
 564              		.cfi_restore 90
 565              		.cfi_restore 91
 566              		.cfi_restore 88
 567              		.cfi_restore 89
 568              		.cfi_restore 86
 569              		.cfi_restore 87
 570              		.cfi_restore 84
 571              		.cfi_restore 85
 572              		.cfi_restore 82
 573              		.cfi_restore 83
 574              		.cfi_restore 80
 575              		.cfi_restore 81
 576              		.cfi_def_cfa_offset 8
 577              	.LVL31:
 578              		.loc 1 141 1 view .LVU188
 579 0394 10BD     		pop	{r4, pc}
 580              	.LVL32:
 581              	.L8:
 582              		.loc 1 141 1 view .LVU189
 583 0396 00BF     		.align	2
 584              	.L7:
 585 0398 00000000 		.word	0
 586 039c 00000000 		.word	eepromConfig
 587 03a0 09E89C3B 		.word	1000138761
 588 03a4 00000000 		.word	mpu6000Calibrating
 589 03a8 00000000 		.word	.LC0
 590 03ac 18000000 		.word	.LC1
 591 03b0 00000000 		.word	rawAccel
 592 03b4 00000000 		.word	rawGyro
 593 03b8 00000000 		.word	rawMPU6000Temperature
 594 03bc 0000AA43 		.word	1135214592
 595 03c0 00000C42 		.word	1108082688
 596 03c4 0000FA44 		.word	1157234688
 597 03c8 3C000000 		.word	.LC2
 598 03cc 60000000 		.word	.LC3
 599 03d0 80000000 		.word	.LC4
 600 03d4 B4000000 		.word	.LC5
 601 03d8 D8000000 		.word	.LC6
 602 03dc F8000000 		.word	.LC7
 603              		.cfi_endproc
 604              	.LFE187:
 606              		.text
 607              	.Letext0:
 608              		.file 2 "/opt/homebrew/Cellar/arm-none-eabi-gcc/10.3-2021.07/gcc/arm-none-eabi/include/machine/_de
 609              		.file 3 "/opt/homebrew/Cellar/arm-none-eabi-gcc/10.3-2021.07/gcc/arm-none-eabi/include/sys/_stdint
 610              		.file 4 "Src/pid.h"
 611              		.file 5 "Src/baredrones32.h"
 612              		.file 6 "Src/sensors/mpu6000.h"
 613              		.file 7 "Src/drv/drv_system.h"
 614              		.file 8 "/opt/homebrew/Cellar/arm-none-eabi-gcc/10.3-2021.07/gcc/arm-none-eabi/include/stdio.h"
 615              		.file 9 "Src/config.h"
 616              		.file 10 "<built-in>"
ARM GAS  /var/folders/9y/n02fl3g16gnf7ppy14xghdy80000gn/T//cczDFYba.s 			page 15


ARM GAS  /var/folders/9y/n02fl3g16gnf7ppy14xghdy80000gn/T//cczDFYba.s 			page 16

