ARM GAS  /var/folders/9y/n02fl3g16gnf7ppy14xghdy80000gn/T//ccx3TtNv.s 			page 1


   1              		.cpu cortex-m7
   2              		.eabi_attribute 27, 1
   3              		.eabi_attribute 28, 1
   4              		.eabi_attribute 20, 1
   5              		.eabi_attribute 21, 1
   6              		.eabi_attribute 23, 3
   7              		.eabi_attribute 24, 1
   8              		.eabi_attribute 25, 1
   9              		.eabi_attribute 26, 1
  10              		.eabi_attribute 30, 1
  11              		.eabi_attribute 34, 1
  12              		.eabi_attribute 18, 4
  13              		.file	"pid.c"
  14              		.text
  15              	.Ltext0:
  16              		.cfi_sections	.debug_frame
  17              		.section	.text.initPID,"ax",%progbits
  18              		.align	1
  19              		.global	initPID
  20              		.arch armv7e-m
  21              		.syntax unified
  22              		.thumb
  23              		.thumb_func
  24              		.fpu fpv5-sp-d16
  26              	initPID:
  27              	.LFB187:
  28              		.file 1 "Src/pid.c"
   1:Src/pid.c     **** /** @file 		pid.c
   2:Src/pid.c     ****  *  @brief
   3:Src/pid.c     ****  *  	This files initializes and updates the PID controller.
   4:Src/pid.c     ****  *
   5:Src/pid.c     ****  *  @author 	Jeremy Wolfe
   6:Src/pid.c     ****  *  @date 		07 MAR 2022
   7:Src/pid.c     ****  */
   8:Src/pid.c     **** 
   9:Src/pid.c     **** /* Includes */
  10:Src/pid.c     **** #include "board.h"
  11:Src/pid.c     **** 
  12:Src/pid.c     **** /* Global Variables */
  13:Src/pid.c     **** uint8_t pidReset = true;
  14:Src/pid.c     **** 
  15:Src/pid.c     **** /** @brief Initializes the PID states.
  16:Src/pid.c     ****  *
  17:Src/pid.c     ****  *  @return Void.
  18:Src/pid.c     ****  */
  19:Src/pid.c     **** void
  20:Src/pid.c     **** initPID(void)
  21:Src/pid.c     **** {
  29              		.loc 1 21 1 view -0
  30              		.cfi_startproc
  31              		@ args = 0, pretend = 0, frame = 0
  32              		@ frame_needed = 0, uses_anonymous_args = 0
  33              		@ link register save eliminated.
  22:Src/pid.c     **** 	uint8_t index;
  34              		.loc 1 22 2 view .LVU1
  23:Src/pid.c     **** 
  24:Src/pid.c     **** 	for (index = 0; index < NUMBER_OF_PIDS; index++)
ARM GAS  /var/folders/9y/n02fl3g16gnf7ppy14xghdy80000gn/T//ccx3TtNv.s 			page 2


  35              		.loc 1 24 2 view .LVU2
  36              	.LVL0:
  37              		.loc 1 24 13 is_stmt 0 view .LVU3
  38 0000 0023     		movs	r3, #0
  39              		.loc 1 24 2 view .LVU4
  40 0002 12E0     		b	.L2
  41              	.LVL1:
  42              	.L3:
  25:Src/pid.c     **** 	{
  26:Src/pid.c     **** 		eepromConfig.PID[index].integratorState = 0.0f;
  43              		.loc 1 26 3 is_stmt 1 discriminator 3 view .LVU5
  44              		.loc 1 26 43 is_stmt 0 discriminator 3 view .LVU6
  45 0004 0A49     		ldr	r1, .L4
  46 0006 C3EBC300 		rsb	r0, r3, r3, lsl #3
  47 000a 8200     		lsls	r2, r0, #2
  48 000c 0A44     		add	r2, r2, r1
  49 000e 0020     		movs	r0, #0
  50 0010 C2F89800 		str	r0, [r2, #152]	@ float
  27:Src/pid.c     **** 		eepromConfig.PID[index].filterState     = 0.0f;
  51              		.loc 1 27 3 is_stmt 1 discriminator 3 view .LVU7
  52              		.loc 1 27 43 is_stmt 0 discriminator 3 view .LVU8
  53 0014 C2F89C00 		str	r0, [r2, #156]	@ float
  28:Src/pid.c     **** 		eepromConfig.PID[index].prevResetState  = false;
  54              		.loc 1 28 3 is_stmt 1 discriminator 3 view .LVU9
  55              		.loc 1 28 43 is_stmt 0 discriminator 3 view .LVU10
  56 0018 C3EBC300 		rsb	r0, r3, r3, lsl #3
  57 001c 8200     		lsls	r2, r0, #2
  58 001e 1144     		add	r1, r1, r2
  59 0020 0022     		movs	r2, #0
  60 0022 81F8A020 		strb	r2, [r1, #160]
  24:Src/pid.c     **** 	{
  61              		.loc 1 24 42 is_stmt 1 discriminator 3 view .LVU11
  24:Src/pid.c     **** 	{
  62              		.loc 1 24 47 is_stmt 0 discriminator 3 view .LVU12
  63 0026 0133     		adds	r3, r3, #1
  64              	.LVL2:
  24:Src/pid.c     **** 	{
  65              		.loc 1 24 47 discriminator 3 view .LVU13
  66 0028 DBB2     		uxtb	r3, r3
  67              	.LVL3:
  68              	.L2:
  24:Src/pid.c     **** 	{
  69              		.loc 1 24 18 is_stmt 1 discriminator 1 view .LVU14
  24:Src/pid.c     **** 	{
  70              		.loc 1 24 2 is_stmt 0 discriminator 1 view .LVU15
  71 002a 052B     		cmp	r3, #5
  72 002c EAD9     		bls	.L3
  29:Src/pid.c     **** 	}
  30:Src/pid.c     **** }
  73              		.loc 1 30 1 view .LVU16
  74 002e 7047     		bx	lr
  75              	.L5:
  76              		.align	2
  77              	.L4:
  78 0030 00000000 		.word	eepromConfig
  79              		.cfi_endproc
  80              	.LFE187:
ARM GAS  /var/folders/9y/n02fl3g16gnf7ppy14xghdy80000gn/T//ccx3TtNv.s 			page 3


  82              		.section	.text.updatePID,"ax",%progbits
  83              		.align	1
  84              		.global	updatePID
  85              		.syntax unified
  86              		.thumb
  87              		.thumb_func
  88              		.fpu fpv5-sp-d16
  90              	updatePID:
  91              	.LVL4:
  92              	.LFB188:
  31:Src/pid.c     **** 
  32:Src/pid.c     **** /** @brief Updates the PID states.
  33:Src/pid.c     ****  *
  34:Src/pid.c     ****  *  @param error Commanded changed minus measured change.
  35:Src/pid.c     ****  *  @param deltaT Time between updates in sec.
  36:Src/pid.c     ****  *  @param reset If the PID states should be reset.
  37:Src/pid.c     ****  *  @param *PIDparameters Struct containing the parameters of the PID controller.
  38:Src/pid.c     ****  *  @return float Output from the algorithm.
  39:Src/pid.c     ****  */
  40:Src/pid.c     **** float
  41:Src/pid.c     **** updatePID(float error, float deltaT, uint8_t reset, struct PIDdata *PIDparameters)
  42:Src/pid.c     **** {
  93              		.loc 1 42 1 is_stmt 1 view -0
  94              		.cfi_startproc
  95              		@ args = 0, pretend = 0, frame = 0
  96              		@ frame_needed = 0, uses_anonymous_args = 0
  97              		@ link register save eliminated.
  98              		.loc 1 42 1 is_stmt 0 view .LVU18
  99 0000 B0EE406A 		vmov.f32	s12, s0
  43:Src/pid.c     ****     float dTerm;
 100              		.loc 1 43 5 is_stmt 1 view .LVU19
  44:Src/pid.c     ****     float pidSum;
 101              		.loc 1 44 5 view .LVU20
  45:Src/pid.c     ****     float pidLimited;
 102              		.loc 1 45 5 view .LVU21
  46:Src/pid.c     **** 
  47:Src/pid.c     ****     if ((reset == true) || (PIDparameters->prevResetState == true))
 103              		.loc 1 47 5 view .LVU22
 104              		.loc 1 47 8 is_stmt 0 view .LVU23
 105 0004 0128     		cmp	r0, #1
 106 0006 02D0     		beq	.L7
 107              		.loc 1 47 42 discriminator 1 view .LVU24
 108 0008 0B7E     		ldrb	r3, [r1, #24]	@ zero_extendqisi2
 109              		.loc 1 47 25 discriminator 1 view .LVU25
 110 000a 012B     		cmp	r3, #1
 111 000c 02D1     		bne	.L8
 112              	.L7:
  48:Src/pid.c     ****     {
  49:Src/pid.c     ****         PIDparameters->integratorState = 0.0f;
 113              		.loc 1 49 9 is_stmt 1 view .LVU26
 114              		.loc 1 49 40 is_stmt 0 view .LVU27
 115 000e 0023     		movs	r3, #0
 116 0010 0B61     		str	r3, [r1, #16]	@ float
  50:Src/pid.c     ****         PIDparameters->filterState     = 0.0f;
 117              		.loc 1 50 9 is_stmt 1 view .LVU28
 118              		.loc 1 50 40 is_stmt 0 view .LVU29
 119 0012 4B61     		str	r3, [r1, #20]	@ float
ARM GAS  /var/folders/9y/n02fl3g16gnf7ppy14xghdy80000gn/T//ccx3TtNv.s 			page 4


 120              	.L8:
  51:Src/pid.c     ****     }
  52:Src/pid.c     **** 
  53:Src/pid.c     ****     dTerm = ((error * PIDparameters->D) - PIDparameters->filterState) * 100.0f;
 121              		.loc 1 53 5 is_stmt 1 view .LVU30
 122              		.loc 1 53 36 is_stmt 0 view .LVU31
 123 0014 D1ED027A 		vldr.32	s15, [r1, #8]
 124              		.loc 1 53 21 view .LVU32
 125 0018 67EE867A 		vmul.f32	s15, s15, s12
 126              		.loc 1 53 56 view .LVU33
 127 001c D1ED055A 		vldr.32	s11, [r1, #20]
 128              		.loc 1 53 41 view .LVU34
 129 0020 77EEE57A 		vsub.f32	s15, s15, s11
 130              		.loc 1 53 11 view .LVU35
 131 0024 9FED1E7A 		vldr.32	s14, .L15
 132 0028 27EE877A 		vmul.f32	s14, s15, s14
 133              	.LVL5:
  54:Src/pid.c     **** 
  55:Src/pid.c     ****     pidSum = (error * PIDparameters->P) + PIDparameters->integratorState + dTerm;
 134              		.loc 1 55 5 is_stmt 1 view .LVU36
 135              		.loc 1 55 36 is_stmt 0 view .LVU37
 136 002c D1ED007A 		vldr.32	s15, [r1]
 137              		.loc 1 55 21 view .LVU38
 138 0030 67EE867A 		vmul.f32	s15, s15, s12
 139              		.loc 1 55 56 view .LVU39
 140 0034 91ED045A 		vldr.32	s10, [r1, #16]
 141              		.loc 1 55 41 view .LVU40
 142 0038 77EE857A 		vadd.f32	s15, s15, s10
 143              		.loc 1 55 12 view .LVU41
 144 003c 77EE877A 		vadd.f32	s15, s15, s14
 145              	.LVL6:
  56:Src/pid.c     **** 
  57:Src/pid.c     ****     if (pidSum > PIDparameters->Limit)
 146              		.loc 1 57 5 is_stmt 1 view .LVU42
 147              		.loc 1 57 31 is_stmt 0 view .LVU43
 148 0040 91ED030A 		vldr.32	s0, [r1, #12]
 149              	.LVL7:
 150              		.loc 1 57 8 view .LVU44
 151 0044 B4EEE70A 		vcmpe.f32	s0, s15
 152 0048 F1EE10FA 		vmrs	APSR_nzcv, FPSCR
 153 004c 08D4     		bmi	.L9
  58:Src/pid.c     ****     {
  59:Src/pid.c     ****         pidLimited = PIDparameters->Limit;
  60:Src/pid.c     ****     }
  61:Src/pid.c     ****     else
  62:Src/pid.c     ****     {
  63:Src/pid.c     ****         pidLimited = -PIDparameters->Limit;
 154              		.loc 1 63 9 is_stmt 1 view .LVU45
 155              		.loc 1 63 20 is_stmt 0 view .LVU46
 156 004e B1EE400A 		vneg.f32	s0, s0
 157              	.LVL8:
  64:Src/pid.c     **** 
  65:Src/pid.c     ****         if (!(pidSum < (-PIDparameters->Limit)))
 158              		.loc 1 65 9 is_stmt 1 view .LVU47
 159              		.loc 1 65 12 is_stmt 0 view .LVU48
 160 0052 F4EEC07A 		vcmpe.f32	s15, s0
 161 0056 F1EE10FA 		vmrs	APSR_nzcv, FPSCR
ARM GAS  /var/folders/9y/n02fl3g16gnf7ppy14xghdy80000gn/T//ccx3TtNv.s 			page 5


 162 005a 01D4     		bmi	.L9
  66:Src/pid.c     ****         {
  67:Src/pid.c     ****             pidLimited = pidSum;
 163              		.loc 1 67 24 view .LVU49
 164 005c B0EE670A 		vmov.f32	s0, s15
 165              	.LVL9:
 166              	.L9:
  68:Src/pid.c     ****         }
  69:Src/pid.c     ****     }
  70:Src/pid.c     **** 
  71:Src/pid.c     ****     PIDparameters->integratorState += ((error * PIDparameters->I) + 100.0f * (pidLimited - pidSum))
 167              		.loc 1 71 5 is_stmt 1 view .LVU50
 168              		.loc 1 71 62 is_stmt 0 view .LVU51
 169 0060 D1ED016A 		vldr.32	s13, [r1, #4]
 170              		.loc 1 71 47 view .LVU52
 171 0064 66EE866A 		vmul.f32	s13, s13, s12
 172              		.loc 1 71 90 view .LVU53
 173 0068 70EE677A 		vsub.f32	s15, s0, s15
 174              	.LVL10:
 175              		.loc 1 71 76 view .LVU54
 176 006c 9FED0C6A 		vldr.32	s12, .L15
 177              	.LVL11:
 178              		.loc 1 71 76 view .LVU55
 179 0070 67EE867A 		vmul.f32	s15, s15, s12
 180              		.loc 1 71 67 view .LVU56
 181 0074 76EEA77A 		vadd.f32	s15, s13, s15
 182              		.loc 1 71 101 view .LVU57
 183 0078 67EEA07A 		vmul.f32	s15, s15, s1
 184              		.loc 1 71 36 view .LVU58
 185 007c 75EE277A 		vadd.f32	s15, s10, s15
 186 0080 C1ED047A 		vstr.32	s15, [r1, #16]
  72:Src/pid.c     **** 
  73:Src/pid.c     ****     PIDparameters->filterState += deltaT * dTerm;
 187              		.loc 1 73 5 is_stmt 1 view .LVU59
 188              		.loc 1 73 42 is_stmt 0 view .LVU60
 189 0084 27EE207A 		vmul.f32	s14, s14, s1
 190              	.LVL12:
 191              		.loc 1 73 32 view .LVU61
 192 0088 35EE877A 		vadd.f32	s14, s11, s14
 193 008c 81ED057A 		vstr.32	s14, [r1, #20]
  74:Src/pid.c     **** 
  75:Src/pid.c     ****     if (reset == true)
 194              		.loc 1 75 5 is_stmt 1 view .LVU62
 195              		.loc 1 75 8 is_stmt 0 view .LVU63
 196 0090 0128     		cmp	r0, #1
 197 0092 02D0     		beq	.L14
  76:Src/pid.c     ****         PIDparameters->prevResetState = true;
  77:Src/pid.c     ****     else
  78:Src/pid.c     ****         PIDparameters->prevResetState = false;
 198              		.loc 1 78 9 is_stmt 1 view .LVU64
 199              		.loc 1 78 39 is_stmt 0 view .LVU65
 200 0094 0023     		movs	r3, #0
 201 0096 0B76     		strb	r3, [r1, #24]
  79:Src/pid.c     **** 
  80:Src/pid.c     ****     return pidLimited;
 202              		.loc 1 80 5 is_stmt 1 view .LVU66
  81:Src/pid.c     **** }
ARM GAS  /var/folders/9y/n02fl3g16gnf7ppy14xghdy80000gn/T//ccx3TtNv.s 			page 6


 203              		.loc 1 81 1 is_stmt 0 view .LVU67
 204 0098 7047     		bx	lr
 205              	.L14:
  76:Src/pid.c     ****         PIDparameters->prevResetState = true;
 206              		.loc 1 76 9 is_stmt 1 view .LVU68
  76:Src/pid.c     ****         PIDparameters->prevResetState = true;
 207              		.loc 1 76 39 is_stmt 0 view .LVU69
 208 009a 0123     		movs	r3, #1
 209 009c 0B76     		strb	r3, [r1, #24]
 210 009e 7047     		bx	lr
 211              	.L16:
 212              		.align	2
 213              	.L15:
 214 00a0 0000C842 		.word	1120403456
 215              		.cfi_endproc
 216              	.LFE188:
 218              		.section	.rodata.initPIDvalues.str1.4,"aMS",%progbits,1
 219              		.align	2
 220              	.LC0:
 221 0000 0A576F75 		.ascii	"\012Would you like to change the PID states?\000"
 221      6C642079 
 221      6F75206C 
 221      696B6520 
 221      746F2063 
 222 002a 0000     		.align	2
 223              	.LC1:
 224 002c 0A576869 		.ascii	"\012Which PID would you like to change?\000"
 224      63682050 
 224      49442077 
 224      6F756C64 
 224      20796F75 
 225 0051 000000   		.align	2
 226              	.LC2:
 227 0054 526F6C6C 		.ascii	"Roll Rate PID : 0\000"
 227      20526174 
 227      65205049 
 227      44203A20 
 227      3000
 228 0066 0000     		.align	2
 229              	.LC3:
 230 0068 50697463 		.ascii	"Pitch Rate PID: 1\000"
 230      68205261 
 230      74652050 
 230      49443A20 
 230      3100
 231 007a 0000     		.align	2
 232              	.LC4:
 233 007c 59617720 		.ascii	"Yaw Rate PID  : 2\000"
 233      52617465 
 233      20504944 
 233      20203A20 
 233      3200
 234 008e 0000     		.align	2
 235              	.LC5:
 236 0090 526F6C6C 		.ascii	"Roll Att PID  : 3\000"
 236      20417474 
 236      20504944 
ARM GAS  /var/folders/9y/n02fl3g16gnf7ppy14xghdy80000gn/T//ccx3TtNv.s 			page 7


 236      20203A20 
 236      3300
 237 00a2 0000     		.align	2
 238              	.LC6:
 239 00a4 50697463 		.ascii	"Pitch Att PID : 4\000"
 239      68204174 
 239      74205049 
 239      44203A20 
 239      3400
 240 00b6 0000     		.align	2
 241              	.LC7:
 242 00b8 0A436F6E 		.ascii	"\012Configuring state %u\012\000"
 242      66696775 
 242      72696E67 
 242      20737461 
 242      74652025 
 243 00cf 00       		.align	2
 244              	.LC8:
 245 00d0 43757272 		.ascii	"Current States:\000"
 245      656E7420 
 245      53746174 
 245      65733A00 
 246              		.global	__aeabi_f2d
 247              		.align	2
 248              	.LC9:
 249 00e0 503A2028 		.ascii	"P: (%1.2f)\012I: (%1.2f)\012D: (%1.2f)\012Limit: (%"
 249      25312E32 
 249      66290A49 
 249      3A202825 
 249      312E3266 
 250 010a 312E3266 		.ascii	"1.2f)\012\000"
 250      290A00
 251 0111 000000   		.align	2
 252              	.LC10:
 253 0114 0A4E6577 		.ascii	"\012New States:\000"
 253      20537461 
 253      7465733A 
 253      00
 254 0121 000000   		.align	2
 255              	.LC11:
 256 0124 0A576F75 		.ascii	"\012Would you like to configure another state?\000"
 256      6C642079 
 256      6F75206C 
 256      696B6520 
 256      746F2063 
 257              		.align	2
 258              	.LC12:
 259 0150 0A46696E 		.ascii	"\012Finished Configuring PIDs\000"
 259      69736865 
 259      6420436F 
 259      6E666967 
 259      7572696E 
 260              		.section	.text.initPIDvalues,"ax",%progbits
 261              		.align	1
 262              		.global	initPIDvalues
 263              		.syntax unified
 264              		.thumb
ARM GAS  /var/folders/9y/n02fl3g16gnf7ppy14xghdy80000gn/T//ccx3TtNv.s 			page 8


 265              		.thumb_func
 266              		.fpu fpv5-sp-d16
 268              	initPIDvalues:
 269              	.LFB189:
  82:Src/pid.c     **** 
  83:Src/pid.c     **** /** @brief Allows the user to change the PID values.
  84:Src/pid.c     ****  *
  85:Src/pid.c     ****  *  @return Void.
  86:Src/pid.c     ****  */
  87:Src/pid.c     **** void
  88:Src/pid.c     **** initPIDvalues(void)
  89:Src/pid.c     **** {
 270              		.loc 1 89 1 is_stmt 1 view -0
 271              		.cfi_startproc
 272              		@ args = 0, pretend = 0, frame = 8
 273              		@ frame_needed = 0, uses_anonymous_args = 0
 274 0000 2DE9F043 		push	{r4, r5, r6, r7, r8, r9, lr}
 275              		.cfi_def_cfa_offset 28
 276              		.cfi_offset 4, -28
 277              		.cfi_offset 5, -24
 278              		.cfi_offset 6, -20
 279              		.cfi_offset 7, -16
 280              		.cfi_offset 8, -12
 281              		.cfi_offset 9, -8
 282              		.cfi_offset 14, -4
 283 0004 89B0     		sub	sp, sp, #36
 284              		.cfi_def_cfa_offset 64
  90:Src/pid.c     **** 	uint8_t ID;
 285              		.loc 1 90 2 view .LVU71
  91:Src/pid.c     **** 	bool again = true;
 286              		.loc 1 91 2 view .LVU72
 287              	.LVL13:
  92:Src/pid.c     **** 
  93:Src/pid.c     **** 	color(CYAN, YES);
 288              		.loc 1 93 2 view .LVU73
 289 0006 0121     		movs	r1, #1
 290 0008 0620     		movs	r0, #6
 291 000a FFF7FEFF 		bl	color
 292              	.LVL14:
  94:Src/pid.c     **** 	printf("\nWould you like to change the PID states?\n");
 293              		.loc 1 94 2 view .LVU74
 294 000e 8248     		ldr	r0, .L26
 295 0010 FFF7FEFF 		bl	puts
 296              	.LVL15:
  95:Src/pid.c     **** 	colorDefault();
 297              		.loc 1 95 2 view .LVU75
 298 0014 FFF7FEFF 		bl	colorDefault
 299              	.LVL16:
  96:Src/pid.c     **** 	delay(1);
 300              		.loc 1 96 2 view .LVU76
 301 0018 0120     		movs	r0, #1
 302 001a FFF7FEFF 		bl	delay
 303              	.LVL17:
  97:Src/pid.c     **** 	while(again){
 304              		.loc 1 97 2 view .LVU77
 305              		.loc 1 97 7 view .LVU78
 306 001e 4FE0     		b	.L22
ARM GAS  /var/folders/9y/n02fl3g16gnf7ppy14xghdy80000gn/T//ccx3TtNv.s 			page 9


 307              	.LVL18:
 308              	.L24:
  98:Src/pid.c     **** 		if(serialWaitFor('y')){
  99:Src/pid.c     **** 			eepromChanged = true;
 100:Src/pid.c     **** 
 101:Src/pid.c     **** 			printf("\nWhich PID would you like to change?\n");
 102:Src/pid.c     **** 			printf("Roll Rate PID : 0\n");
 103:Src/pid.c     **** 			printf("Pitch Rate PID: 1\n");
 104:Src/pid.c     **** 			printf("Yaw Rate PID  : 2\n");
 105:Src/pid.c     **** 			printf("Roll Att PID  : 3\n");
 106:Src/pid.c     **** 			printf("Pitch Att PID : 4\n");
 107:Src/pid.c     **** 			serialRead8(&ID);
 108:Src/pid.c     **** 
 109:Src/pid.c     **** 			color(YELLOW, YES);
 110:Src/pid.c     **** 			printf("\nConfiguring state %u\n", ID);
 111:Src/pid.c     **** 			delay(1);
 112:Src/pid.c     **** 			color(BLUE, YES);
 113:Src/pid.c     **** 			printf("Current States:\n");
 114:Src/pid.c     **** 			delay(1);
 115:Src/pid.c     **** 			colorDefault();
 116:Src/pid.c     **** 			printf("P: (%1.2f)\nI: (%1.2f)\nD: (%1.2f)\nLimit: (%1.2f)\n",
 117:Src/pid.c     **** 					eepromConfig.PID[ID].P,
 118:Src/pid.c     **** 					eepromConfig.PID[ID].I,
 119:Src/pid.c     **** 					eepromConfig.PID[ID].D,
 120:Src/pid.c     **** 					eepromConfig.PID[ID].Limit);
 121:Src/pid.c     **** 
 122:Src/pid.c     **** 			serialReadPID(&eepromConfig.PID[ID].P,
 123:Src/pid.c     **** 					&eepromConfig.PID[ID].I,
 124:Src/pid.c     **** 					&eepromConfig.PID[ID].D);
 125:Src/pid.c     **** 			if(ID < 2)
 126:Src/pid.c     **** 				eepromConfig.PID[ID].Limit	= 1000.0f * eepromConfig.PID[ID].P * PI / 180.0;
 309              		.loc 1 126 5 view .LVU79
 310              		.loc 1 126 64 is_stmt 0 view .LVU80
 311 0020 C3EBC301 		rsb	r1, r3, r3, lsl #3
 312 0024 04EB8101 		add	r1, r4, r1, lsl #2
 313 0028 D1ED227A 		vldr.32	s15, [r1, #136]
 314              		.loc 1 126 42 view .LVU81
 315 002c 9FED7B7A 		vldr.32	s14, .L26+4
 316 0030 67EE877A 		vmul.f32	s15, s15, s14
 317              		.loc 1 126 67 view .LVU82
 318 0034 9FED7A7A 		vldr.32	s14, .L26+8
 319 0038 67EE877A 		vmul.f32	s15, s15, s14
 320              		.loc 1 126 72 view .LVU83
 321 003c DFED796A 		vldr.32	s13, .L26+12
 322 0040 87EEA67A 		vdiv.f32	s14, s15, s13
 323              		.loc 1 126 32 view .LVU84
 324 0044 81ED257A 		vstr.32	s14, [r1, #148]
 325              	.L20:
 127:Src/pid.c     **** 			else if(ID == 2)
 128:Src/pid.c     **** 				eepromConfig.PID[ID].Limit	= 1000.0f * eepromConfig.yawRateScaling * eepromConfig.PID[ID].P;
 129:Src/pid.c     **** 			else
 130:Src/pid.c     **** 				eepromConfig.PID[ID].Limit	= 1000.0f * eepromConfig.attitudeScaling * eepromConfig.PID[ID].P;
 131:Src/pid.c     **** 
 132:Src/pid.c     **** 			color(GREEN, YES);
 326              		.loc 1 132 4 is_stmt 1 view .LVU85
 327 0048 0121     		movs	r1, #1
 328 004a 0220     		movs	r0, #2
ARM GAS  /var/folders/9y/n02fl3g16gnf7ppy14xghdy80000gn/T//ccx3TtNv.s 			page 10


 329 004c FFF7FEFF 		bl	color
 330              	.LVL19:
 133:Src/pid.c     **** 			printf("\nNew States:\n");
 331              		.loc 1 133 4 view .LVU86
 332 0050 7548     		ldr	r0, .L26+16
 333 0052 FFF7FEFF 		bl	puts
 334              	.LVL20:
 134:Src/pid.c     **** 			colorDefault();
 335              		.loc 1 134 4 view .LVU87
 336 0056 FFF7FEFF 		bl	colorDefault
 337              	.LVL21:
 135:Src/pid.c     **** 			printf("P: (%1.2f)\nI: (%1.2f)\nD: (%1.2f)\nLimit: (%1.2f)\n",
 338              		.loc 1 135 4 view .LVU88
 136:Src/pid.c     **** 					eepromConfig.PID[ID].P,
 339              		.loc 1 136 26 is_stmt 0 view .LVU89
 340 005a 9DF81F30 		ldrb	r3, [sp, #31]	@ zero_extendqisi2
 341 005e 7349     		ldr	r1, .L26+20
 342 0060 C3EBC302 		rsb	r2, r3, r3, lsl #3
 343 0064 01EB8202 		add	r2, r1, r2, lsl #2
 137:Src/pid.c     **** 					eepromConfig.PID[ID].I,
 344              		.loc 1 137 26 view .LVU90
 345 0068 D2F88C60 		ldr	r6, [r2, #140]	@ float
 138:Src/pid.c     **** 					eepromConfig.PID[ID].D,
 346              		.loc 1 138 26 view .LVU91
 347 006c D2F89070 		ldr	r7, [r2, #144]	@ float
 139:Src/pid.c     **** 					eepromConfig.PID[ID].Limit);
 348              		.loc 1 139 26 view .LVU92
 349 0070 D2F89480 		ldr	r8, [r2, #148]	@ float
 135:Src/pid.c     **** 					eepromConfig.PID[ID].P,
 350              		.loc 1 135 4 view .LVU93
 351 0074 D2F88800 		ldr	r0, [r2, #136]	@ float
 352 0078 FFF7FEFF 		bl	__aeabi_f2d
 353              	.LVL22:
 354 007c 0446     		mov	r4, r0
 355 007e 0D46     		mov	r5, r1
 356 0080 4046     		mov	r0, r8	@ float
 357 0082 FFF7FEFF 		bl	__aeabi_f2d
 358              	.LVL23:
 359 0086 CDE90401 		strd	r0, [sp, #16]
 360 008a 3846     		mov	r0, r7	@ float
 361 008c FFF7FEFF 		bl	__aeabi_f2d
 362              	.LVL24:
 363 0090 CDE90201 		strd	r0, [sp, #8]
 364 0094 3046     		mov	r0, r6	@ float
 365 0096 FFF7FEFF 		bl	__aeabi_f2d
 366              	.LVL25:
 367 009a CDE90001 		strd	r0, [sp]
 368 009e 2246     		mov	r2, r4
 369 00a0 2B46     		mov	r3, r5
 370 00a2 6348     		ldr	r0, .L26+24
 371 00a4 FFF7FEFF 		bl	printf
 372              	.LVL26:
 140:Src/pid.c     **** 
 141:Src/pid.c     **** 			printf("\nWould you like to configure another state?\n");
 373              		.loc 1 141 4 is_stmt 1 view .LVU94
 374 00a8 6248     		ldr	r0, .L26+28
 375 00aa FFF7FEFF 		bl	puts
ARM GAS  /var/folders/9y/n02fl3g16gnf7ppy14xghdy80000gn/T//ccx3TtNv.s 			page 11


 376              	.LVL27:
 142:Src/pid.c     **** 			delay(1);
 377              		.loc 1 142 4 view .LVU95
 378 00ae 0120     		movs	r0, #1
 379 00b0 FFF7FEFF 		bl	delay
 380              	.LVL28:
 143:Src/pid.c     **** 			if(serialWaitFor('y')){
 381              		.loc 1 143 4 view .LVU96
 382              		.loc 1 143 7 is_stmt 0 view .LVU97
 383 00b4 7920     		movs	r0, #121
 384 00b6 FFF7FEFF 		bl	serialWaitFor
 385              	.LVL29:
 386              		.loc 1 143 6 view .LVU98
 387 00ba 0028     		cmp	r0, #0
 388 00bc 00F09D80 		beq	.L18
 389              	.L22:
  98:Src/pid.c     **** 			eepromChanged = true;
 390              		.loc 1 98 3 is_stmt 1 view .LVU99
  98:Src/pid.c     **** 			eepromChanged = true;
 391              		.loc 1 98 6 is_stmt 0 view .LVU100
 392 00c0 7920     		movs	r0, #121
 393 00c2 FFF7FEFF 		bl	serialWaitFor
 394              	.LVL30:
  98:Src/pid.c     **** 			eepromChanged = true;
 395              		.loc 1 98 5 view .LVU101
 396 00c6 0028     		cmp	r0, #0
 397 00c8 00F09780 		beq	.L18
  99:Src/pid.c     **** 
 398              		.loc 1 99 4 is_stmt 1 view .LVU102
  99:Src/pid.c     **** 
 399              		.loc 1 99 18 is_stmt 0 view .LVU103
 400 00cc 0124     		movs	r4, #1
 401 00ce 5A4B     		ldr	r3, .L26+32
 402 00d0 1C70     		strb	r4, [r3]
 101:Src/pid.c     **** 			printf("Roll Rate PID : 0\n");
 403              		.loc 1 101 4 is_stmt 1 view .LVU104
 404 00d2 5A48     		ldr	r0, .L26+36
 405 00d4 FFF7FEFF 		bl	puts
 406              	.LVL31:
 102:Src/pid.c     **** 			printf("Pitch Rate PID: 1\n");
 407              		.loc 1 102 4 view .LVU105
 408 00d8 5948     		ldr	r0, .L26+40
 409 00da FFF7FEFF 		bl	puts
 410              	.LVL32:
 103:Src/pid.c     **** 			printf("Yaw Rate PID  : 2\n");
 411              		.loc 1 103 4 view .LVU106
 412 00de 5948     		ldr	r0, .L26+44
 413 00e0 FFF7FEFF 		bl	puts
 414              	.LVL33:
 104:Src/pid.c     **** 			printf("Roll Att PID  : 3\n");
 415              		.loc 1 104 4 view .LVU107
 416 00e4 5848     		ldr	r0, .L26+48
 417 00e6 FFF7FEFF 		bl	puts
 418              	.LVL34:
 105:Src/pid.c     **** 			printf("Pitch Att PID : 4\n");
 419              		.loc 1 105 4 view .LVU108
 420 00ea 5848     		ldr	r0, .L26+52
ARM GAS  /var/folders/9y/n02fl3g16gnf7ppy14xghdy80000gn/T//ccx3TtNv.s 			page 12


 421 00ec FFF7FEFF 		bl	puts
 422              	.LVL35:
 106:Src/pid.c     **** 			serialRead8(&ID);
 423              		.loc 1 106 4 view .LVU109
 424 00f0 5748     		ldr	r0, .L26+56
 425 00f2 FFF7FEFF 		bl	puts
 426              	.LVL36:
 107:Src/pid.c     **** 
 427              		.loc 1 107 4 view .LVU110
 428 00f6 0DF11F00 		add	r0, sp, #31
 429 00fa FFF7FEFF 		bl	serialRead8
 430              	.LVL37:
 109:Src/pid.c     **** 			printf("\nConfiguring state %u\n", ID);
 431              		.loc 1 109 4 view .LVU111
 432 00fe 2146     		mov	r1, r4
 433 0100 0320     		movs	r0, #3
 434 0102 FFF7FEFF 		bl	color
 435              	.LVL38:
 110:Src/pid.c     **** 			delay(1);
 436              		.loc 1 110 4 view .LVU112
 437 0106 9DF81F10 		ldrb	r1, [sp, #31]	@ zero_extendqisi2
 438 010a 5248     		ldr	r0, .L26+60
 439 010c FFF7FEFF 		bl	printf
 440              	.LVL39:
 111:Src/pid.c     **** 			color(BLUE, YES);
 441              		.loc 1 111 4 view .LVU113
 442 0110 2046     		mov	r0, r4
 443 0112 FFF7FEFF 		bl	delay
 444              	.LVL40:
 112:Src/pid.c     **** 			printf("Current States:\n");
 445              		.loc 1 112 4 view .LVU114
 446 0116 2146     		mov	r1, r4
 447 0118 0420     		movs	r0, #4
 448 011a FFF7FEFF 		bl	color
 449              	.LVL41:
 113:Src/pid.c     **** 			delay(1);
 450              		.loc 1 113 4 view .LVU115
 451 011e 4E48     		ldr	r0, .L26+64
 452 0120 FFF7FEFF 		bl	puts
 453              	.LVL42:
 114:Src/pid.c     **** 			colorDefault();
 454              		.loc 1 114 4 view .LVU116
 455 0124 2046     		mov	r0, r4
 456 0126 FFF7FEFF 		bl	delay
 457              	.LVL43:
 115:Src/pid.c     **** 			printf("P: (%1.2f)\nI: (%1.2f)\nD: (%1.2f)\nLimit: (%1.2f)\n",
 458              		.loc 1 115 4 view .LVU117
 459 012a FFF7FEFF 		bl	colorDefault
 460              	.LVL44:
 116:Src/pid.c     **** 					eepromConfig.PID[ID].P,
 461              		.loc 1 116 4 view .LVU118
 117:Src/pid.c     **** 					eepromConfig.PID[ID].I,
 462              		.loc 1 117 26 is_stmt 0 view .LVU119
 463 012e 9DF81F30 		ldrb	r3, [sp, #31]	@ zero_extendqisi2
 464 0132 3E4C     		ldr	r4, .L26+20
 465 0134 C3EBC302 		rsb	r2, r3, r3, lsl #3
 466 0138 04EB8202 		add	r2, r4, r2, lsl #2
ARM GAS  /var/folders/9y/n02fl3g16gnf7ppy14xghdy80000gn/T//ccx3TtNv.s 			page 13


 118:Src/pid.c     **** 					eepromConfig.PID[ID].D,
 467              		.loc 1 118 26 view .LVU120
 468 013c D2F88C50 		ldr	r5, [r2, #140]	@ float
 119:Src/pid.c     **** 					eepromConfig.PID[ID].Limit);
 469              		.loc 1 119 26 view .LVU121
 470 0140 D2F89080 		ldr	r8, [r2, #144]	@ float
 120:Src/pid.c     **** 
 471              		.loc 1 120 26 view .LVU122
 472 0144 D2F89490 		ldr	r9, [r2, #148]	@ float
 116:Src/pid.c     **** 					eepromConfig.PID[ID].P,
 473              		.loc 1 116 4 view .LVU123
 474 0148 D2F88800 		ldr	r0, [r2, #136]	@ float
 475 014c FFF7FEFF 		bl	__aeabi_f2d
 476              	.LVL45:
 477 0150 0646     		mov	r6, r0
 478 0152 0F46     		mov	r7, r1
 479 0154 4846     		mov	r0, r9	@ float
 480 0156 FFF7FEFF 		bl	__aeabi_f2d
 481              	.LVL46:
 482 015a CDE90401 		strd	r0, [sp, #16]
 483 015e 4046     		mov	r0, r8	@ float
 484 0160 FFF7FEFF 		bl	__aeabi_f2d
 485              	.LVL47:
 486 0164 CDE90201 		strd	r0, [sp, #8]
 487 0168 2846     		mov	r0, r5	@ float
 488 016a FFF7FEFF 		bl	__aeabi_f2d
 489              	.LVL48:
 490 016e CDE90001 		strd	r0, [sp]
 491 0172 3246     		mov	r2, r6
 492 0174 3B46     		mov	r3, r7
 493 0176 2E48     		ldr	r0, .L26+24
 494 0178 FFF7FEFF 		bl	printf
 495              	.LVL49:
 122:Src/pid.c     **** 					&eepromConfig.PID[ID].I,
 496              		.loc 1 122 4 is_stmt 1 view .LVU124
 122:Src/pid.c     **** 					&eepromConfig.PID[ID].I,
 497              		.loc 1 122 39 is_stmt 0 view .LVU125
 498 017c 9DF81F00 		ldrb	r0, [sp, #31]	@ zero_extendqisi2
 122:Src/pid.c     **** 					&eepromConfig.PID[ID].I,
 499              		.loc 1 122 4 view .LVU126
 500 0180 C0EBC002 		rsb	r2, r0, r0, lsl #3
 501 0184 9200     		lsls	r2, r2, #2
 502 0186 9032     		adds	r2, r2, #144
 503 0188 C0EBC001 		rsb	r1, r0, r0, lsl #3
 504 018c 8900     		lsls	r1, r1, #2
 505 018e 8831     		adds	r1, r1, #136
 506 0190 2144     		add	r1, r1, r4
 507 0192 C0EBC000 		rsb	r0, r0, r0, lsl #3
 508 0196 8000     		lsls	r0, r0, #2
 509 0198 8830     		adds	r0, r0, #136
 510 019a 2244     		add	r2, r2, r4
 511 019c 0431     		adds	r1, r1, #4
 512 019e 2044     		add	r0, r0, r4
 513 01a0 FFF7FEFF 		bl	serialReadPID
 514              	.LVL50:
 125:Src/pid.c     **** 				eepromConfig.PID[ID].Limit	= 1000.0f * eepromConfig.PID[ID].P * PI / 180.0;
 515              		.loc 1 125 4 is_stmt 1 view .LVU127
ARM GAS  /var/folders/9y/n02fl3g16gnf7ppy14xghdy80000gn/T//ccx3TtNv.s 			page 14


 125:Src/pid.c     **** 				eepromConfig.PID[ID].Limit	= 1000.0f * eepromConfig.PID[ID].P * PI / 180.0;
 516              		.loc 1 125 10 is_stmt 0 view .LVU128
 517 01a4 9DF81F30 		ldrb	r3, [sp, #31]	@ zero_extendqisi2
 125:Src/pid.c     **** 				eepromConfig.PID[ID].Limit	= 1000.0f * eepromConfig.PID[ID].P * PI / 180.0;
 518              		.loc 1 125 6 view .LVU129
 519 01a8 012B     		cmp	r3, #1
 520 01aa 7FF639AF 		bls	.L24
 127:Src/pid.c     **** 				eepromConfig.PID[ID].Limit	= 1000.0f * eepromConfig.yawRateScaling * eepromConfig.PID[ID].P;
 521              		.loc 1 127 9 is_stmt 1 view .LVU130
 127:Src/pid.c     **** 				eepromConfig.PID[ID].Limit	= 1000.0f * eepromConfig.yawRateScaling * eepromConfig.PID[ID].P;
 522              		.loc 1 127 11 is_stmt 0 view .LVU131
 523 01ae 022B     		cmp	r3, #2
 524 01b0 11D0     		beq	.L25
 130:Src/pid.c     **** 
 525              		.loc 1 130 5 is_stmt 1 view .LVU132
 130:Src/pid.c     **** 
 526              		.loc 1 130 56 is_stmt 0 view .LVU133
 527 01b2 1E4A     		ldr	r2, .L26+20
 528 01b4 D2ED1C7A 		vldr.32	s15, [r2, #112]
 130:Src/pid.c     **** 
 529              		.loc 1 130 42 view .LVU134
 530 01b8 9FED187A 		vldr.32	s14, .L26+4
 531 01bc 67EE877A 		vmul.f32	s15, s15, s14
 130:Src/pid.c     **** 
 532              		.loc 1 130 95 view .LVU135
 533 01c0 C3EBC301 		rsb	r1, r3, r3, lsl #3
 534 01c4 02EB8101 		add	r1, r2, r1, lsl #2
 535 01c8 91ED227A 		vldr.32	s14, [r1, #136]
 130:Src/pid.c     **** 
 536              		.loc 1 130 73 view .LVU136
 537 01cc 67EE877A 		vmul.f32	s15, s15, s14
 130:Src/pid.c     **** 
 538              		.loc 1 130 32 view .LVU137
 539 01d0 C1ED257A 		vstr.32	s15, [r1, #148]
 540 01d4 38E7     		b	.L20
 541              	.L25:
 128:Src/pid.c     **** 			else
 542              		.loc 1 128 5 is_stmt 1 view .LVU138
 128:Src/pid.c     **** 			else
 543              		.loc 1 128 56 is_stmt 0 view .LVU139
 544 01d6 154A     		ldr	r2, .L26+20
 545 01d8 D2ED1B7A 		vldr.32	s15, [r2, #108]
 128:Src/pid.c     **** 			else
 546              		.loc 1 128 42 view .LVU140
 547 01dc 9FED0F7A 		vldr.32	s14, .L26+4
 548 01e0 67EE877A 		vmul.f32	s15, s15, s14
 128:Src/pid.c     **** 			else
 549              		.loc 1 128 94 view .LVU141
 550 01e4 C3EBC301 		rsb	r1, r3, r3, lsl #3
 551 01e8 02EB8101 		add	r1, r2, r1, lsl #2
 552 01ec 91ED227A 		vldr.32	s14, [r1, #136]
 128:Src/pid.c     **** 			else
 553              		.loc 1 128 72 view .LVU142
 554 01f0 67EE877A 		vmul.f32	s15, s15, s14
 128:Src/pid.c     **** 			else
 555              		.loc 1 128 32 view .LVU143
 556 01f4 C1ED257A 		vstr.32	s15, [r1, #148]
ARM GAS  /var/folders/9y/n02fl3g16gnf7ppy14xghdy80000gn/T//ccx3TtNv.s 			page 15


 557 01f8 26E7     		b	.L20
 558              	.L18:
 144:Src/pid.c     **** 				again = true;
 145:Src/pid.c     **** 			}
 146:Src/pid.c     **** 			else{
 147:Src/pid.c     **** 				again = false;
 148:Src/pid.c     **** 			}
 149:Src/pid.c     **** 		}
 150:Src/pid.c     **** 		else
 151:Src/pid.c     **** 			again = false;
 152:Src/pid.c     **** 	}
 153:Src/pid.c     **** 	color(GREEN, YES);
 559              		.loc 1 153 2 is_stmt 1 view .LVU144
 560 01fa 0121     		movs	r1, #1
 561 01fc 0220     		movs	r0, #2
 562 01fe FFF7FEFF 		bl	color
 563              	.LVL51:
 154:Src/pid.c     **** 	printf("\nFinished Configuring PIDs\n");
 564              		.loc 1 154 2 view .LVU145
 565 0202 1648     		ldr	r0, .L26+68
 566 0204 FFF7FEFF 		bl	puts
 567              	.LVL52:
 155:Src/pid.c     **** 	colorDefault();
 568              		.loc 1 155 2 view .LVU146
 569 0208 FFF7FEFF 		bl	colorDefault
 570              	.LVL53:
 156:Src/pid.c     **** 	writeEEPROM();
 571              		.loc 1 156 2 view .LVU147
 572 020c FFF7FEFF 		bl	writeEEPROM
 573              	.LVL54:
 157:Src/pid.c     **** }
 574              		.loc 1 157 1 is_stmt 0 view .LVU148
 575 0210 09B0     		add	sp, sp, #36
 576              		.cfi_def_cfa_offset 28
 577              		@ sp needed
 578 0212 BDE8F083 		pop	{r4, r5, r6, r7, r8, r9, pc}
 579              	.L27:
 580 0216 00BF     		.align	2
 581              	.L26:
 582 0218 00000000 		.word	.LC0
 583 021c 00007A44 		.word	1148846080
 584 0220 DB0F4940 		.word	1078530011
 585 0224 00003443 		.word	1127481344
 586 0228 14010000 		.word	.LC10
 587 022c 00000000 		.word	eepromConfig
 588 0230 E0000000 		.word	.LC9
 589 0234 24010000 		.word	.LC11
 590 0238 00000000 		.word	eepromChanged
 591 023c 2C000000 		.word	.LC1
 592 0240 54000000 		.word	.LC2
 593 0244 68000000 		.word	.LC3
 594 0248 7C000000 		.word	.LC4
 595 024c 90000000 		.word	.LC5
 596 0250 A4000000 		.word	.LC6
 597 0254 B8000000 		.word	.LC7
 598 0258 D0000000 		.word	.LC8
 599 025c 50010000 		.word	.LC12
ARM GAS  /var/folders/9y/n02fl3g16gnf7ppy14xghdy80000gn/T//ccx3TtNv.s 			page 16


 600              		.cfi_endproc
 601              	.LFE189:
 603              		.section	.text.setPIDstates,"ax",%progbits
 604              		.align	1
 605              		.global	setPIDstates
 606              		.syntax unified
 607              		.thumb
 608              		.thumb_func
 609              		.fpu fpv5-sp-d16
 611              	setPIDstates:
 612              	.LVL55:
 613              	.LFB190:
 158:Src/pid.c     **** 
 159:Src/pid.c     **** /** @brief Set the state of the PIDs.
 160:Src/pid.c     ****  *
 161:Src/pid.c     ****  *	@param IDPid Which PID state you want to change.
 162:Src/pid.c     ****  *	@param value The value to write.
 163:Src/pid.c     ****  *  @return Void.
 164:Src/pid.c     ****  */
 165:Src/pid.c     **** void
 166:Src/pid.c     **** setPIDstates(uint8_t IDPid, float value)
 167:Src/pid.c     **** {
 614              		.loc 1 167 1 is_stmt 1 view -0
 615              		.cfi_startproc
 616              		@ args = 0, pretend = 0, frame = 0
 617              		@ frame_needed = 0, uses_anonymous_args = 0
 618              		@ link register save eliminated.
 168:Src/pid.c     **** 	eepromConfig.PID[IDPid].integratorState = value;
 619              		.loc 1 168 2 view .LVU150
 620              		.loc 1 168 42 is_stmt 0 view .LVU151
 621 0000 044B     		ldr	r3, .L29
 622 0002 C0EBC002 		rsb	r2, r0, r0, lsl #3
 623 0006 03EB8202 		add	r2, r3, r2, lsl #2
 624 000a 82ED260A 		vstr.32	s0, [r2, #152]
 169:Src/pid.c     **** 	eepromConfig.PID[IDPid].filterState     = value;
 625              		.loc 1 169 2 is_stmt 1 view .LVU152
 626              		.loc 1 169 42 is_stmt 0 view .LVU153
 627 000e 82ED270A 		vstr.32	s0, [r2, #156]
 170:Src/pid.c     **** }
 628              		.loc 1 170 1 view .LVU154
 629 0012 7047     		bx	lr
 630              	.L30:
 631              		.align	2
 632              	.L29:
 633 0014 00000000 		.word	eepromConfig
 634              		.cfi_endproc
 635              	.LFE190:
 637              		.section	.text.zeroPIDstates,"ax",%progbits
 638              		.align	1
 639              		.global	zeroPIDstates
 640              		.syntax unified
 641              		.thumb
 642              		.thumb_func
 643              		.fpu fpv5-sp-d16
 645              	zeroPIDstates:
 646              	.LFB191:
 171:Src/pid.c     **** 
ARM GAS  /var/folders/9y/n02fl3g16gnf7ppy14xghdy80000gn/T//ccx3TtNv.s 			page 17


 172:Src/pid.c     **** /** @brief Set all states to 0.
 173:Src/pid.c     ****  *
 174:Src/pid.c     ****  *  @return Void.
 175:Src/pid.c     ****  */
 176:Src/pid.c     **** void
 177:Src/pid.c     **** zeroPIDstates(void)
 178:Src/pid.c     **** {
 647              		.loc 1 178 1 is_stmt 1 view -0
 648              		.cfi_startproc
 649              		@ args = 0, pretend = 0, frame = 0
 650              		@ frame_needed = 0, uses_anonymous_args = 0
 651 0000 10B5     		push	{r4, lr}
 652              		.cfi_def_cfa_offset 8
 653              		.cfi_offset 4, -8
 654              		.cfi_offset 14, -4
 179:Src/pid.c     **** 	uint8_t index;
 655              		.loc 1 179 2 view .LVU156
 180:Src/pid.c     **** 
 181:Src/pid.c     **** 	for (index = 0; index < NUMBER_OF_PIDS; index++)
 656              		.loc 1 181 2 view .LVU157
 657              	.LVL56:
 658              		.loc 1 181 13 is_stmt 0 view .LVU158
 659 0002 0024     		movs	r4, #0
 660              		.loc 1 181 2 view .LVU159
 661 0004 06E0     		b	.L32
 662              	.LVL57:
 663              	.L33:
 182:Src/pid.c     **** 		setPIDstates(index, 0.0f);
 664              		.loc 1 182 3 is_stmt 1 discriminator 3 view .LVU160
 665 0006 9FED050A 		vldr.32	s0, .L35
 666 000a 2046     		mov	r0, r4
 667 000c FFF7FEFF 		bl	setPIDstates
 668              	.LVL58:
 181:Src/pid.c     **** 		setPIDstates(index, 0.0f);
 669              		.loc 1 181 42 discriminator 3 view .LVU161
 181:Src/pid.c     **** 		setPIDstates(index, 0.0f);
 670              		.loc 1 181 47 is_stmt 0 discriminator 3 view .LVU162
 671 0010 0134     		adds	r4, r4, #1
 672              	.LVL59:
 181:Src/pid.c     **** 		setPIDstates(index, 0.0f);
 673              		.loc 1 181 47 discriminator 3 view .LVU163
 674 0012 E4B2     		uxtb	r4, r4
 675              	.LVL60:
 676              	.L32:
 181:Src/pid.c     **** 		setPIDstates(index, 0.0f);
 677              		.loc 1 181 18 is_stmt 1 discriminator 1 view .LVU164
 181:Src/pid.c     **** 		setPIDstates(index, 0.0f);
 678              		.loc 1 181 2 is_stmt 0 discriminator 1 view .LVU165
 679 0014 052C     		cmp	r4, #5
 680 0016 F6D9     		bls	.L33
 183:Src/pid.c     **** }
 681              		.loc 1 183 1 view .LVU166
 682 0018 10BD     		pop	{r4, pc}
 683              	.LVL61:
 684              	.L36:
 685              		.loc 1 183 1 view .LVU167
 686 001a 00BF     		.align	2
ARM GAS  /var/folders/9y/n02fl3g16gnf7ppy14xghdy80000gn/T//ccx3TtNv.s 			page 18


 687              	.L35:
 688 001c 00000000 		.word	0
 689              		.cfi_endproc
 690              	.LFE191:
 692              		.global	pidReset
 693              		.section	.data.pidReset,"aw"
 696              	pidReset:
 697 0000 01       		.byte	1
 698              		.text
 699              	.Letext0:
 700              		.file 2 "/opt/homebrew/Cellar/arm-none-eabi-gcc/10.3-2021.07/gcc/arm-none-eabi/include/machine/_de
 701              		.file 3 "/opt/homebrew/Cellar/arm-none-eabi-gcc/10.3-2021.07/gcc/arm-none-eabi/include/sys/_stdint
 702              		.file 4 "Src/pid.h"
 703              		.file 5 "Src/baredrones32.h"
 704              		.file 6 "Src/config.h"
 705              		.file 7 "Src/drv/drv_color.h"
 706              		.file 8 "Src/drv/drv_system.h"
 707              		.file 9 "/opt/homebrew/Cellar/arm-none-eabi-gcc/10.3-2021.07/gcc/arm-none-eabi/include/stdio.h"
 708              		.file 10 "Src/drv/drv_serial.h"
 709              		.file 11 "<built-in>"
ARM GAS  /var/folders/9y/n02fl3g16gnf7ppy14xghdy80000gn/T//ccx3TtNv.s 			page 19

