ARM GAS  /var/folders/9y/n02fl3g16gnf7ppy14xghdy80000gn/T//ccrxAp0l.s 			page 1


   1              		.cpu cortex-m7
   2              		.eabi_attribute 27, 1
   3              		.eabi_attribute 28, 1
   4              		.eabi_attribute 20, 1
   5              		.eabi_attribute 21, 1
   6              		.eabi_attribute 23, 3
   7              		.eabi_attribute 24, 1
   8              		.eabi_attribute 25, 1
   9              		.eabi_attribute 26, 1
  10              		.eabi_attribute 30, 1
  11              		.eabi_attribute 34, 1
  12              		.eabi_attribute 18, 4
  13              		.file	"transition.c"
  14              		.text
  15              	.Ltext0:
  16              		.cfi_sections	.debug_frame
  17              		.section	.rodata.modeTransition.str1.4,"aMS",%progbits,1
  18              		.align	2
  19              	.LC0:
  20 0000 0A576169 		.ascii	"\012Waiting for arms...\000"
  20      74696E67 
  20      20666F72 
  20      2061726D 
  20      732E2E2E 
  21 0015 000000   		.align	2
  22              	.LC1:
  23 0018 0A41726D 		.ascii	"\012Arms have reached limits\000"
  23      73206861 
  23      76652072 
  23      65616368 
  23      6564206C 
  24 0032 0000     		.align	2
  25              	.LC2:
  26 0034 5472616E 		.ascii	"Transition to FLIGHT mode complete\000"
  26      73697469 
  26      6F6E2074 
  26      6F20464C 
  26      49474854 
  27 0057 00       		.align	2
  28              	.LC3:
  29 0058 5472616E 		.ascii	"Transition to ROVER mode complete\000"
  29      73697469 
  29      6F6E2074 
  29      6F20524F 
  29      56455220 
  30              		.section	.text.modeTransition,"ax",%progbits
  31              		.align	1
  32              		.global	modeTransition
  33              		.arch armv7e-m
  34              		.syntax unified
  35              		.thumb
  36              		.thumb_func
  37              		.fpu fpv5-sp-d16
  39              	modeTransition:
  40              	.LFB187:
  41              		.file 1 "Src/motion/transition.c"
   1:Src/motion/transition.c **** /** @file 		transition.c
ARM GAS  /var/folders/9y/n02fl3g16gnf7ppy14xghdy80000gn/T//ccrxAp0l.s 			page 2


   2:Src/motion/transition.c ****  *  @brief
   3:Src/motion/transition.c ****  *  	This file allows for the transition between flight modes.
   4:Src/motion/transition.c ****  *
   5:Src/motion/transition.c ****  *  @author 	Jeremy Wolfe
   6:Src/motion/transition.c ****  *  @date 		16 MAR 2022
   7:Src/motion/transition.c ****  */
   8:Src/motion/transition.c **** 
   9:Src/motion/transition.c **** /* Includes */
  10:Src/motion/transition.c **** #include "board.h"
  11:Src/motion/transition.c **** 
  12:Src/motion/transition.c **** /** @brief This runs all the functions necessary to convert between modes.
  13:Src/motion/transition.c ****  *
  14:Src/motion/transition.c ****  *  @return Void.
  15:Src/motion/transition.c ****  */
  16:Src/motion/transition.c **** void
  17:Src/motion/transition.c **** modeTransition(void)
  18:Src/motion/transition.c **** {
  42              		.loc 1 18 1 view -0
  43              		.cfi_startproc
  44              		@ args = 0, pretend = 0, frame = 0
  45              		@ frame_needed = 0, uses_anonymous_args = 0
  46 0000 08B5     		push	{r3, lr}
  47              		.cfi_def_cfa_offset 8
  48              		.cfi_offset 3, -8
  49              		.cfi_offset 14, -4
  19:Src/motion/transition.c **** 	systemReady = false;
  50              		.loc 1 19 2 view .LVU1
  51              		.loc 1 19 14 is_stmt 0 view .LVU2
  52 0002 0023     		movs	r3, #0
  53 0004 1B4A     		ldr	r2, .L8
  54 0006 1370     		strb	r3, [r2]
  20:Src/motion/transition.c **** 	motor_initialized = false;
  55              		.loc 1 20 2 is_stmt 1 view .LVU3
  56              		.loc 1 20 20 is_stmt 0 view .LVU4
  57 0008 1B4A     		ldr	r2, .L8+4
  58 000a 1370     		strb	r3, [r2]
  21:Src/motion/transition.c **** 
  22:Src/motion/transition.c **** 
  23:Src/motion/transition.c **** 	wormDrive();
  59              		.loc 1 23 2 is_stmt 1 view .LVU5
  60 000c FFF7FEFF 		bl	wormDrive
  61              	.LVL0:
  24:Src/motion/transition.c **** 
  25:Src/motion/transition.c **** 	printf("\nWaiting for arms...\n");
  62              		.loc 1 25 2 view .LVU6
  63 0010 1A48     		ldr	r0, .L8+8
  64 0012 FFF7FEFF 		bl	puts
  65              	.LVL1:
  26:Src/motion/transition.c **** 	while(!(arm1Hit & arm2Hit));	// wait for both arms to hit
  66              		.loc 1 26 2 view .LVU7
  67              	.L2:
  68              		.loc 1 26 29 discriminator 1 view .LVU8
  69              		.loc 1 26 7 discriminator 1 view .LVU9
  70              		.loc 1 26 18 is_stmt 0 discriminator 1 view .LVU10
  71 0016 1A4B     		ldr	r3, .L8+12
  72 0018 1B78     		ldrb	r3, [r3]	@ zero_extendqisi2
  73 001a 1A4A     		ldr	r2, .L8+16
ARM GAS  /var/folders/9y/n02fl3g16gnf7ppy14xghdy80000gn/T//ccrxAp0l.s 			page 3


  74 001c 1278     		ldrb	r2, [r2]	@ zero_extendqisi2
  75              		.loc 1 26 7 discriminator 1 view .LVU11
  76 001e 002B     		cmp	r3, #0
  77 0020 F9D0     		beq	.L2
  78 0022 002A     		cmp	r2, #0
  79 0024 F7D0     		beq	.L2
  27:Src/motion/transition.c **** 
  28:Src/motion/transition.c **** 	color(GREEN, YES);
  80              		.loc 1 28 2 is_stmt 1 view .LVU12
  81 0026 0121     		movs	r1, #1
  82 0028 0220     		movs	r0, #2
  83 002a FFF7FEFF 		bl	color
  84              	.LVL2:
  29:Src/motion/transition.c **** 	printf("\nArms have reached limits\n");
  85              		.loc 1 29 2 view .LVU13
  86 002e 1648     		ldr	r0, .L8+20
  87 0030 FFF7FEFF 		bl	puts
  88              	.LVL3:
  30:Src/motion/transition.c **** 	colorDefault();
  89              		.loc 1 30 2 view .LVU14
  90 0034 FFF7FEFF 		bl	colorDefault
  91              	.LVL4:
  31:Src/motion/transition.c **** 
  32:Src/motion/transition.c **** 	if(mode == TRANS_FLIGHT)
  92              		.loc 1 32 2 view .LVU15
  93              		.loc 1 32 10 is_stmt 0 view .LVU16
  94 0038 144B     		ldr	r3, .L8+24
  95 003a 1B78     		ldrb	r3, [r3]	@ zero_extendqisi2
  96              		.loc 1 32 4 view .LVU17
  97 003c 63B1     		cbz	r3, .L6
  33:Src/motion/transition.c **** 	{
  34:Src/motion/transition.c **** 		mode = FLIGHT;
  35:Src/motion/transition.c **** 		printf("Transition to FLIGHT mode complete\n");
  36:Src/motion/transition.c **** 	}
  37:Src/motion/transition.c **** 	else if(mode == TRANS_ROVER)
  98              		.loc 1 37 7 is_stmt 1 view .LVU18
  99              		.loc 1 37 9 is_stmt 0 view .LVU19
 100 003e 022B     		cmp	r3, #2
 101 0040 11D0     		beq	.L7
 102              	.L4:
  38:Src/motion/transition.c **** 	{
  39:Src/motion/transition.c **** 		mode = ROVER;
  40:Src/motion/transition.c **** 		printf("Transition to ROVER mode complete\n");
  41:Src/motion/transition.c **** 	}
  42:Src/motion/transition.c **** 	arm1Hit = false;
 103              		.loc 1 42 2 is_stmt 1 view .LVU20
 104              		.loc 1 42 10 is_stmt 0 view .LVU21
 105 0042 0023     		movs	r3, #0
 106 0044 0E4A     		ldr	r2, .L8+12
 107 0046 1370     		strb	r3, [r2]
  43:Src/motion/transition.c **** 	arm2Hit = false;
 108              		.loc 1 43 2 is_stmt 1 view .LVU22
 109              		.loc 1 43 10 is_stmt 0 view .LVU23
 110 0048 0E4A     		ldr	r2, .L8+16
 111 004a 1370     		strb	r3, [r2]
  44:Src/motion/transition.c **** 
  45:Src/motion/transition.c **** 	systemReady = true;
ARM GAS  /var/folders/9y/n02fl3g16gnf7ppy14xghdy80000gn/T//ccrxAp0l.s 			page 4


 112              		.loc 1 45 2 is_stmt 1 view .LVU24
 113              		.loc 1 45 14 is_stmt 0 view .LVU25
 114 004c 0123     		movs	r3, #1
 115 004e 094A     		ldr	r2, .L8
 116 0050 1370     		strb	r3, [r2]
  46:Src/motion/transition.c **** 	motor_initialized = true;
 117              		.loc 1 46 2 is_stmt 1 view .LVU26
 118              		.loc 1 46 20 is_stmt 0 view .LVU27
 119 0052 094A     		ldr	r2, .L8+4
 120 0054 1370     		strb	r3, [r2]
  47:Src/motion/transition.c **** 
  48:Src/motion/transition.c **** }
 121              		.loc 1 48 1 view .LVU28
 122 0056 08BD     		pop	{r3, pc}
 123              	.L6:
  34:Src/motion/transition.c **** 		printf("Transition to FLIGHT mode complete\n");
 124              		.loc 1 34 3 is_stmt 1 view .LVU29
  34:Src/motion/transition.c **** 		printf("Transition to FLIGHT mode complete\n");
 125              		.loc 1 34 8 is_stmt 0 view .LVU30
 126 0058 0C4B     		ldr	r3, .L8+24
 127 005a 0122     		movs	r2, #1
 128 005c 1A70     		strb	r2, [r3]
  35:Src/motion/transition.c **** 	}
 129              		.loc 1 35 3 is_stmt 1 view .LVU31
 130 005e 0C48     		ldr	r0, .L8+28
 131 0060 FFF7FEFF 		bl	puts
 132              	.LVL5:
 133 0064 EDE7     		b	.L4
 134              	.L7:
  39:Src/motion/transition.c **** 		printf("Transition to ROVER mode complete\n");
 135              		.loc 1 39 3 view .LVU32
  39:Src/motion/transition.c **** 		printf("Transition to ROVER mode complete\n");
 136              		.loc 1 39 8 is_stmt 0 view .LVU33
 137 0066 094B     		ldr	r3, .L8+24
 138 0068 0322     		movs	r2, #3
 139 006a 1A70     		strb	r2, [r3]
  40:Src/motion/transition.c **** 	}
 140              		.loc 1 40 3 is_stmt 1 view .LVU34
 141 006c 0948     		ldr	r0, .L8+32
 142 006e FFF7FEFF 		bl	puts
 143              	.LVL6:
 144 0072 E6E7     		b	.L4
 145              	.L9:
 146              		.align	2
 147              	.L8:
 148 0074 00000000 		.word	systemReady
 149 0078 00000000 		.word	motor_initialized
 150 007c 00000000 		.word	.LC0
 151 0080 00000000 		.word	arm1Hit
 152 0084 00000000 		.word	arm2Hit
 153 0088 18000000 		.word	.LC1
 154 008c 00000000 		.word	mode
 155 0090 34000000 		.word	.LC2
 156 0094 58000000 		.word	.LC3
 157              		.cfi_endproc
 158              	.LFE187:
 160              		.text
ARM GAS  /var/folders/9y/n02fl3g16gnf7ppy14xghdy80000gn/T//ccrxAp0l.s 			page 5


 161              	.Letext0:
 162              		.file 2 "/opt/homebrew/Cellar/arm-none-eabi-gcc/10.3-2021.07/gcc/arm-none-eabi/include/machine/_de
 163              		.file 3 "/opt/homebrew/Cellar/arm-none-eabi-gcc/10.3-2021.07/gcc/arm-none-eabi/include/sys/_stdint
 164              		.file 4 "Src/baredrones32.h"
 165              		.file 5 "Src/drv/drv_color.h"
 166              		.file 6 "Src/drv/drv_system.h"
 167              		.file 7 "Src/drv/drv_worm.h"
 168              		.file 8 "Src/motion/process_commands.h"
 169              		.file 9 "Src/motors.h"
 170              		.file 10 "<built-in>"
ARM GAS  /var/folders/9y/n02fl3g16gnf7ppy14xghdy80000gn/T//ccrxAp0l.s 			page 6


DEFINED SYMBOLS
                            *ABS*:0000000000000000 transition.c
/var/folders/9y/n02fl3g16gnf7ppy14xghdy80000gn/T//ccrxAp0l.s:18     .rodata.modeTransition.str1.4:0000000000000000 $d
/var/folders/9y/n02fl3g16gnf7ppy14xghdy80000gn/T//ccrxAp0l.s:31     .text.modeTransition:0000000000000000 $t
/var/folders/9y/n02fl3g16gnf7ppy14xghdy80000gn/T//ccrxAp0l.s:39     .text.modeTransition:0000000000000000 modeTransition
/var/folders/9y/n02fl3g16gnf7ppy14xghdy80000gn/T//ccrxAp0l.s:148    .text.modeTransition:0000000000000074 $d

UNDEFINED SYMBOLS
wormDrive
puts
color
colorDefault
systemReady
motor_initialized
arm1Hit
arm2Hit
mode
